Archive member included because of file (symbol)

board/mv_feroceon/config_kw/libconfig_kw.a(platform.o)
                              cpu/arm926ejs/start.o (lowlevel_init)
board/mv_feroceon/config_kw/libconfig_kw.a(mvTwsiEeprom.o)
                              board/mv_feroceon/config_kw/libconfig_kw.a(platform.o) (_i2cInit)
board/mv_feroceon/config_kw/libconfig_kw.a(mv_cmd.o)
                              (__u_boot_cmd_bubt)
board/mv_feroceon/config_kw/libconfig_kw.a(mv_main.o)
                              board/mv_feroceon/config_kw/libconfig_kw.a(mv_cmd.o) (recoveryHandle)
board/mv_feroceon/config_kw/libconfig_kw.a(mvCtrlEnvLib.o)
                              board/mv_feroceon/config_kw/libconfig_kw.a(mv_main.o) (mvCtrlMppRegGet)
board/mv_feroceon/config_kw/libconfig_kw.a(mvAhbToMbus.o)
                              board/mv_feroceon/config_kw/libconfig_kw.a(mvCtrlEnvLib.o) (mvAhbToMbusAddDecShow)
board/mv_feroceon/config_kw/libconfig_kw.a(mvCpuIf.o)
                              board/mv_feroceon/config_kw/libconfig_kw.a(mvCtrlEnvLib.o) (mvCpuIfAddDecShow)
board/mv_feroceon/config_kw/libconfig_kw.a(mvSysXor.o)
                              board/mv_feroceon/config_kw/libconfig_kw.a(mvCtrlEnvLib.o) (mvXorAddrDecShow)
board/mv_feroceon/config_kw/libconfig_kw.a(mvSysDram.o)
                              board/mv_feroceon/config_kw/libconfig_kw.a(mvCpuIf.o) (mvDramIfWinGet)
board/mv_feroceon/config_kw/libconfig_kw.a(mvSysGbe.o)
                              board/mv_feroceon/config_kw/libconfig_kw.a(mvCtrlEnvLib.o) (mvEthAddrDecShow)
board/mv_feroceon/config_kw/libconfig_kw.a(mvSysTs.o)
                              board/mv_feroceon/config_kw/libconfig_kw.a(mvCtrlEnvLib.o) (mvTsuAddrDecShow)
board/mv_feroceon/config_kw/libconfig_kw.a(mvSysPex.o)
                              board/mv_feroceon/config_kw/libconfig_kw.a(mvCtrlEnvLib.o) (mvPexAddrDecShow)
board/mv_feroceon/config_kw/libconfig_kw.a(mvSysUsb.o)
                              board/mv_feroceon/config_kw/libconfig_kw.a(mvCtrlEnvLib.o) (mvUsbAddrDecShow)
board/mv_feroceon/config_kw/libconfig_kw.a(mvCpu.o)
                              board/mv_feroceon/config_kw/libconfig_kw.a(mv_main.o) (mvCpuNameGet)
board/mv_feroceon/config_kw/libconfig_kw.a(mvBoardEnvLib.o)
                              board/mv_feroceon/config_kw/libconfig_kw.a(mv_main.o) (mvBoardIdGet)
board/mv_feroceon/config_kw/libconfig_kw.a(mvBoardEnvSpec.o)
                              board/mv_feroceon/config_kw/libconfig_kw.a(mvBoardEnvLib.o) (boardInfoTbl)
board/mv_feroceon/config_kw/libconfig_kw.a(mv_flash.o)
                              (__u_boot_cmd_sflash)
board/mv_feroceon/config_kw/libconfig_kw.a(mv_pageTable.o)
                              (__u_boot_cmd_cpumap)
board/mv_feroceon/config_kw/libconfig_kw.a(mv_mon_init.o)
                              board/mv_feroceon/config_kw/libconfig_kw.a(mv_pageTable.o) (PTexist)
board/mv_feroceon/config_kw/libconfig_kw.a(mv_pci.o)
                              (__u_boot_cmd_sp)
board/mv_feroceon/config_kw/libconfig_kw.a(mv_ide.o)
                              (__u_boot_cmd_ide)
board/mv_feroceon/config_kw/libconfig_kw.a(mv_protectionUnit.o)
                              board/mv_feroceon/config_kw/libconfig_kw.a(mv_pageTable.o) (mpuMap)
board/mv_feroceon/config_kw/libconfig_kw.a(mv_ext2_boot.o)
                              (__u_boot_cmd_bootext2)
board/mv_feroceon/config_kw/libconfig_kw.a(mvCommon.o)
                              board/mv_feroceon/config_kw/libconfig_kw.a(mv_main.o) (mvMacStrToHex)
board/mv_feroceon/config_kw/libconfig_kw.a(mvOs.o)
                              board/mv_feroceon/config_kw/libconfig_kw.a(mvCpu.o) (mvOsCpuPartGet)
board/mv_feroceon/config_kw/libconfig_kw.a(mvFlashCom.o)
                              board/mv_feroceon/config_kw/libconfig_kw.a(mv_flash.o) (mvFlashNumOfSecsGet)
board/mv_feroceon/config_kw/libconfig_kw.a(mvSata.o)
                              board/mv_feroceon/config_kw/libconfig_kw.a(mv_ide.o) (mvSataUnmaskAdapterInterrupt)
board/mv_feroceon/config_kw/libconfig_kw.a(mvStorageDev.o)
                              board/mv_feroceon/config_kw/libconfig_kw.a(mv_ide.o) (mvStorageDevSetDeviceType)
board/mv_feroceon/config_kw/libconfig_kw.a(mvSFlash.o)
                              board/mv_feroceon/config_kw/libconfig_kw.a(mv_flash.o) (mvSFlashSizeGet)
board/mv_feroceon/config_kw/libconfig_kw.a(mvEthPhy.o)
                              board/mv_feroceon/config_kw/libconfig_kw.a(mv_cmd.o) (mvEthPhyRegRead)
board/mv_feroceon/config_kw/libconfig_kw.a(mvRtc.o)
                              board/mv_feroceon/config_kw/libconfig_kw.a(mv_main.o) (mvRtcTimeGet)
board/mv_feroceon/config_kw/libconfig_kw.a(mvTwsi.o)
                              board/mv_feroceon/config_kw/libconfig_kw.a(mv_main.o) (mvTwsiInit)
board/mv_feroceon/config_kw/libconfig_kw.a(mvGpp.o)
                              board/mv_feroceon/config_kw/libconfig_kw.a(mv_main.o) (mvGppValueSet)
board/mv_feroceon/config_kw/libconfig_kw.a(mvSpi.o)
                              board/mv_feroceon/config_kw/libconfig_kw.a(mvSFlash.o) (mvSpiBaudRateSet)
board/mv_feroceon/config_kw/libconfig_kw.a(mvSpiCmnd.o)
                              board/mv_feroceon/config_kw/libconfig_kw.a(mvSFlash.o) (mvSpiWriteThenRead)
board/mv_feroceon/config_kw/libconfig_kw.a(mvUsb.o)
                              board/mv_feroceon/config_kw/libconfig_kw.a(mvSysUsb.o) (mvUsbHalInit)
board/mv_feroceon/config_kw/libconfig_kw.a(mvXor.o)
                              board/mv_feroceon/config_kw/libconfig_kw.a(mvSysXor.o) (mvXorHalInit)
board/mv_feroceon/config_kw/libconfig_kw.a(mvEth.o)
                              board/mv_feroceon/config_kw/libconfig_kw.a(mvSysGbe.o) (mvEthPortPowerUp)
board/mv_feroceon/config_kw/libconfig_kw.a(mvPciIf.o)
                              board/mv_feroceon/config_kw/libconfig_kw.a(mv_pci.o) (mvPciIfTypeGet)
board/mv_feroceon/config_kw/libconfig_kw.a(mvPex.o)
                              board/mv_feroceon/config_kw/libconfig_kw.a(mv_cmd.o) (mvPexPhyRegWrite)
board/mv_feroceon/config_kw/libconfig_kw.a(mvTsu.o)
                              board/mv_feroceon/config_kw/libconfig_kw.a(mvSysTs.o) (mvTsuHalInit)
board/mv_feroceon/config_kw/libconfig_kw.a(mvMD5.o)
                              board/mv_feroceon/config_kw/libconfig_kw.a(mv_main.o) (mvMD5)
board/mv_feroceon/config_kw/libconfig_kw.a(mvSwitch.o)
                              board/mv_feroceon/config_kw/libconfig_kw.a(mvBoardEnvLib.o) (mvEthE6161SwitchBasicInit)
board/mv_feroceon/config_kw/libconfig_kw.a(mvCtrlEnvAddrDec.o)
                              board/mv_feroceon/config_kw/libconfig_kw.a(mvAhbToMbus.o) (mvCtrlRegToAddrDec)
board/mv_feroceon/config_kw/libconfig_kw.a(mvSysSata.o)
                              board/mv_feroceon/config_kw/libconfig_kw.a(mv_ide.o) (mvSataWinInit)
board/mv_feroceon/config_kw/libconfig_kw.a(mvPciUtils.o)
                              board/mv_feroceon/config_kw/libconfig_kw.a(mv_pci.o) (mvPciScan)
board/mv_feroceon/config_kw/libconfig_kw.a(mvOsSata.o)
                              board/mv_feroceon/config_kw/libconfig_kw.a(mvSata.o) (mvSwapShort)
cpu/arm926ejs/libarm926ejs.a(interrupts.o)
                              board/mv_feroceon/config_kw/libconfig_kw.a(mv_main.o) (udelay)
lib_arm/libarm.a(board.o)     cpu/arm926ejs/start.o (start_armboot)
lib_arm/libarm.a(cache.o)     board/mv_feroceon/config_kw/libconfig_kw.a(mv_ide.o) (flush_cache)
net/libnet.a(net.o)           board/mv_feroceon/config_kw/libconfig_kw.a(mv_cmd.o) (copy_filename)
net/libnet.a(tftp.o)          net/libnet.a(net.o) (TftpStart)
net/libnet.a(bootp.o)         net/libnet.a(net.o) (BootpRequest)
net/libnet.a(rarp.o)          net/libnet.a(net.o) (RarpRequest)
net/libnet.a(eth.o)           net/libnet.a(net.o) (eth_get_dev)
net/libnet.a(rcvr.o)          net/libnet.a(net.o) (RecoverRequest)
disk/libdisk.a(part.o)        board/mv_feroceon/config_kw/libconfig_kw.a(mv_ide.o) (print_part)
disk/libdisk.a(part_dos.o)    disk/libdisk.a(part.o) (test_part_dos)
disk/libdisk.a(part_efi.o)    disk/libdisk.a(part.o) (test_part_efi)
drivers/libdrivers.a(cfi_flash.o)
                              board/mv_feroceon/config_kw/libconfig_kw.a(mv_main.o) (flash_add_base_addr)
drivers/libdrivers.a(pci.o)   board/mv_feroceon/config_kw/libconfig_kw.a(mv_pci.o) (pci_hose_read_config_byte_via_dword)
drivers/libdrivers.a(pci_auto.o)
                              board/mv_feroceon/config_kw/libconfig_kw.a(mv_pci.o) (pciauto_region_allocate)
drivers/nand/libnand.a(nand.o)
                              lib_arm/libarm.a(board.o) (nand_init)
drivers/nand/libnand.a(nand_base.o)
                              drivers/nand/libnand.a(nand.o) (nand_scan)
drivers/nand/libnand.a(nand_ids.o)
                              drivers/nand/libnand.a(nand_base.o) (nand_flash_ids)
drivers/nand/libnand.a(nand_ecc.o)
                              drivers/nand/libnand.a(nand_base.o) (nand_calculate_ecc)
drivers/nand/libnand.a(nand_bbt.o)
                              drivers/nand/libnand.a(nand_base.o) (nand_isbad_bbt)
drivers/nand/libnand.a(nand_util.o)
                              board/mv_feroceon/config_kw/libconfig_kw.a(mv_main.o) (nand_read_opts)
common/libcommon.a(main.o)    board/mv_feroceon/config_kw/libconfig_kw.a(mv_ext2_boot.o) (run_command)
common/libcommon.a(cmd_boot.o)
                              (__u_boot_cmd_go)
common/libcommon.a(cmd_bootm.o)
                              board/mv_feroceon/config_kw/libconfig_kw.a(mv_ide.o) (print_image_hdr)
common/libcommon.a(cmd_date.o)
                              (__u_boot_cmd_date)
common/libcommon.a(cmd_eeprom.o)
                              (__u_boot_cmd_eeprom)
common/libcommon.a(cmd_ext2.o)
                              (__u_boot_cmd_ext2ls)
common/libcommon.a(cmd_flash.o)
                              (__u_boot_cmd_flinfo)
common/libcommon.a(cmd_i2c.o)
                              (__u_boot_cmd_imd)
common/libcommon.a(cmd_jffs2.o)
                              common/libcommon.a(cmd_flash.o) (id_parse)
common/libcommon.a(cmd_mem.o)
                              common/libcommon.a(cmd_i2c.o) (cmd_get_data_size)
common/libcommon.a(cmd_nand.o)
                              (__u_boot_cmd_nand)
common/libcommon.a(cmd_net.o)
                              (__u_boot_cmd_bootp)
common/libcommon.a(cmd_nvedit.o)
                              lib_arm/libarm.a(board.o) (getenv_r)
common/libcommon.a(cmd_pci.o)
                              (__u_boot_cmd_pci)
common/libcommon.a(cmd_scsi.o)
                              common/libcommon.a(cmd_ext2.o) (scsi_get_dev)
common/libcommon.a(command.o)
                              common/libcommon.a(main.o) (find_cmd)
common/libcommon.a(console.o)
                              board/mv_feroceon/config_kw/libconfig_kw.a(mv_cmd.o) (printf)
common/libcommon.a(devices.o)
                              lib_arm/libarm.a(board.o) (devices_init)
common/libcommon.a(dlmalloc.o)
                              board/mv_feroceon/config_kw/libconfig_kw.a(mvOs.o) (free)
common/libcommon.a(env_common.o)
                              common/libcommon.a(cmd_nvedit.o) (env_get_addr)
common/libcommon.a(env_nand.o)
                              common/libcommon.a(env_common.o) (env_get_char_spec)
common/libcommon.a(exports.o)
                              lib_arm/libarm.a(board.o) (jumptable_init)
common/libcommon.a(flash.o)   common/libcommon.a(cmd_mem.o) (addr2info)
common/libcommon.a(lists.o)   common/libcommon.a(console.o) (ListGetPtrToItem)
lib_generic/libgeneric.a(crc32.o)
                              disk/libdisk.a(part_efi.o) (crc32)
lib_generic/libgeneric.a(ctype.o)
                              common/libcommon.a(cmd_jffs2.o) (_ctype)
lib_generic/libgeneric.a(display_options.o)
                              net/libnet.a(tftp.o) (print_size)
lib_generic/libgeneric.a(string.o)
                              board/mv_feroceon/config_kw/libconfig_kw.a(mv_cmd.o) (strcpy)
lib_generic/libgeneric.a(vsprintf.o)
                              board/mv_feroceon/config_kw/libconfig_kw.a(mv_cmd.o) (simple_strtoul)
lib_generic/libgeneric.a(zlib.o)
                              common/libcommon.a(cmd_bootm.o) (inflateEnd)
board/mv_feroceon/config_kw/libconfig_kw.a(mvCntmr.o)
                              cpu/arm926ejs/libarm926ejs.a(interrupts.o) (mvCntmrRead)
board/mv_feroceon/config_kw/libconfig_kw.a(mv_dram.o)
                              lib_arm/libarm.a(board.o) (dram_init)
board/mv_feroceon/config_kw/libconfig_kw.a(mv_serial.o)
                              common/libcommon.a(cmd_nvedit.o) (serial_setbrg)
board/mv_feroceon/config_kw/libconfig_kw.a(mv_rtc.o)
                              common/libcommon.a(cmd_date.o) (rtc_reset)
board/mv_feroceon/config_kw/libconfig_kw.a(mv_nand.o)
                              drivers/nand/libnand.a(nand.o) (board_nand_init)
board/mv_feroceon/config_kw/libconfig_kw.a(mv_egiga.o)
                              net/libnet.a(eth.o) (mv_eth_initialize)
board/mv_feroceon/config_kw/libconfig_kw.a(mv_i2c.o)
                              lib_arm/libarm.a(board.o) (i2c_probe)
board/mv_feroceon/config_kw/libconfig_kw.a(mvDramIf.o)
                              board/mv_feroceon/config_kw/libconfig_kw.a(mv_dram.o) (mvDramIfBankSizeGet)
board/mv_feroceon/config_kw/libconfig_kw.a(mvUart.o)
                              board/mv_feroceon/config_kw/libconfig_kw.a(mv_serial.o) (mvUartInit)
board/mv_feroceon/config_kw/libconfig_kw.a(mvSpd.o)
                              board/mv_feroceon/config_kw/libconfig_kw.a(mvDramIf.o) (dimmSpdGet)
cpu/arm926ejs/libarm926ejs.a(cpu.o)
                              lib_arm/libarm.a(board.o) (cpu_init)
lib_arm/libarm.a(armlinux.o)  common/libcommon.a(cmd_bootm.o) (do_bootm_linux)
fs/cramfs/libcramfs.a(cramfs.o)
                              common/libcommon.a(cmd_jffs2.o) (cramfs_check)
fs/cramfs/libcramfs.a(uncompress.o)
                              fs/cramfs/libcramfs.a(cramfs.o) (cramfs_uncompress_exit)
fs/jffs2/libjffs2.a(jffs2_1pass.o)
                              fs/cramfs/libcramfs.a(cramfs.o) (mkmodestr)
fs/jffs2/libjffs2.a(compr_rtime.o)
                              fs/jffs2/libjffs2.a(jffs2_1pass.o) (rtime_decompress)
fs/jffs2/libjffs2.a(compr_rubin.o)
                              fs/jffs2/libjffs2.a(jffs2_1pass.o) (dynrubin_decompress)
fs/jffs2/libjffs2.a(compr_zlib.o)
                              fs/jffs2/libjffs2.a(jffs2_1pass.o) (zlib_decompress)
fs/jffs2/libjffs2.a(mini_inflate.o)
                              fs/jffs2/libjffs2.a(compr_zlib.o) (decompress_block)
fs/ext2/libext2fs.a(ext2fs.o)
                              common/libcommon.a(cmd_ext2.o) (ext2fs_mount)
fs/ext2/libext2fs.a(dev.o)    fs/ext2/libext2fs.a(ext2fs.o) (ext2fs_devread)
rtc/librtc.a(date.o)          common/libcommon.a(cmd_date.o) (GregorianDay)
drivers/libdrivers.a(ahci.o)  common/libcommon.a(cmd_scsi.o) (scsi_bus_reset)
/opt/devel/proto/marvell/build-eabi/kernel-toolchain/bin/../lib/gcc/arm-none-linux-gnueabi/4.2.1/libgcc.a(_udivsi3.o)
                              board/mv_feroceon/config_kw/libconfig_kw.a(mv_cmd.o) (__aeabi_uidiv)
/opt/devel/proto/marvell/build-eabi/kernel-toolchain/bin/../lib/gcc/arm-none-linux-gnueabi/4.2.1/libgcc.a(_divsi3.o)
                              drivers/nand/libnand.a(nand_util.o) (__aeabi_idiv)
/opt/devel/proto/marvell/build-eabi/kernel-toolchain/bin/../lib/gcc/arm-none-linux-gnueabi/4.2.1/libgcc.a(_ashrdi3.o)
                              drivers/nand/libnand.a(nand_base.o) (__aeabi_lasr)
/opt/devel/proto/marvell/build-eabi/kernel-toolchain/bin/../lib/gcc/arm-none-linux-gnueabi/4.2.1/libgcc.a(_ashldi3.o)
                              drivers/nand/libnand.a(nand_base.o) (__aeabi_llsl)
/opt/devel/proto/marvell/build-eabi/kernel-toolchain/bin/../lib/gcc/arm-none-linux-gnueabi/4.2.1/libgcc.a(_aeabi_uldivmod.o)
                              drivers/nand/libnand.a(nand_util.o) (__aeabi_uldivmod)
/opt/devel/proto/marvell/build-eabi/kernel-toolchain/bin/../lib/gcc/arm-none-linux-gnueabi/4.2.1/libgcc.a(_dvmd_lnx.o)
                              /opt/devel/proto/marvell/build-eabi/kernel-toolchain/bin/../lib/gcc/arm-none-linux-gnueabi/4.2.1/libgcc.a(_udivsi3.o) (__div0)
/opt/devel/proto/marvell/build-eabi/kernel-toolchain/bin/../lib/gcc/arm-none-linux-gnueabi/4.2.1/libgcc.a(bpabi.o)
                              /opt/devel/proto/marvell/build-eabi/kernel-toolchain/bin/../lib/gcc/arm-none-linux-gnueabi/4.2.1/libgcc.a(_aeabi_uldivmod.o) (__gnu_uldivmod_helper)
/opt/devel/proto/marvell/build-eabi/kernel-toolchain/bin/../lib/gcc/arm-none-linux-gnueabi/4.2.1/libgcc.a(_divdi3.o)
                              /opt/devel/proto/marvell/build-eabi/kernel-toolchain/bin/../lib/gcc/arm-none-linux-gnueabi/4.2.1/libgcc.a(bpabi.o) (__divdi3)
/opt/devel/proto/marvell/build-eabi/kernel-toolchain/bin/../lib/gcc/arm-none-linux-gnueabi/4.2.1/libgcc.a(_udivdi3.o)
                              /opt/devel/proto/marvell/build-eabi/kernel-toolchain/bin/../lib/gcc/arm-none-linux-gnueabi/4.2.1/libgcc.a(bpabi.o) (__udivdi3)
/opt/devel/proto/marvell/build-eabi/kernel-toolchain/bin/../lib/gcc/arm-none-linux-gnueabi/4.2.1/libgcc.a(_clz.o)
                              /opt/devel/proto/marvell/build-eabi/kernel-toolchain/bin/../lib/gcc/arm-none-linux-gnueabi/4.2.1/libgcc.a(_divdi3.o) (__clz_tab)

Memory Configuration

Name             Origin             Length             Attributes
*default*        0x00000000         0xffffffff

Linker script and memory map

                0x00600000                . = _start

.text           0x00600000    0x49b84
 cpu/arm926ejs/start.o(.text)
 .text          0x00600000      0x440 cpu/arm926ejs/start.o
                0x0060011c                _dcache_index_max
                0x00600120                _dcache_index_inc
                0x00600128                _dcache_set_index
                0x00600048                _bss_start
                0x0060004c                _bss_end
                0x00600044                _armboot_start
                0x00600000                _start
                0x0060012c                cpu_dcache_flush_all
                0x00600168                cpu_icache_flush_invalidate_all
                0x00600040                _TEXT_BASE
                0x00600124                _dcache_set_max
 *(.text)
 .text          0x00600440        0x0 board/mv_feroceon/USP/jump.o
 .text          0x00600440       0xa4 board/mv_feroceon/config_kw/libconfig_kw.a(platform.o)
                0x00600440                lowlevel_init
 .text          0x006004e4      0x304 board/mv_feroceon/config_kw/libconfig_kw.a(mvTwsiEeprom.o)
                0x006004e4                _i2cInit
                0x0060052c                _i2cRead
 .text          0x006007e8     0x11a4 board/mv_feroceon/config_kw/libconfig_kw.a(mv_cmd.o)
                0x00600cb4                phy_write_cmd
                0x00600de0                pcie_phy_read_cmd
                0x00600f88                fi_cmd
                0x0060081c                do_rcvr
                0x00600834                do_satr
                0x00601274                clk_cmd
                0x0060157c                nand_burn_nboot_cmd
                0x00601158                g_cmd
                0x006014fc                resetenv_cmd
                0x00600d18                phy_read_cmd
                0x00600e44                cmpm_cmd
                0x00601214                sg_cmd
                0x006010e8                mv_go
                0x006011fc                displayMemoryMap_cmd
                0x006012d8                ir_cmd
                0x006016b4                nand_burn_uboot_cmd
                0x00600d7c                pcie_phy_write_cmd
 .text          0x0060198c     0x2384 board/mv_feroceon/config_kw/libconfig_kw.a(mv_main.o)
                0x00603ce0                print_dev_id
                0x00601994                __aeabi_unwind_cpp_pr0
                0x00603b80                misc_init_r_dec_win
                0x00603660                set_shift_led_default
                0x00601a28                recoveryHandle
                0x00603aa0                print_mvBanner
                0x0060231c                wix_fw_update
                0x006019d4                lcm_delay
                0x00601c90                recoveryCheck
                0x006023a0                mvGetRtcSec
                0x00603604                set_led
                0x006023fc                mvTclkGet
                0x006039d8                display_lcm
                0x00602428                misc_init_r_env
                0x00601f5c                mv_cpu_init
                0x00603510                change_back_to_sample_b
                0x006038b4                set_ddram_address
                0x006038f4                show_lcm
                0x00603758                write_lcm
                0x00601e14                mv_set_power_scheme
                0x0060239c                reset_cpu
                0x006036a8                board_init
                0x0060399c                initialize_lcm
                0x00603874                send_pkg
                0x00603578                set_data_bus_mode
                0x00601d2c                mvMppModuleTypePrint
                0x006019ac                maskAllInt
                0x00601ca8                mvUpdateNorFlashBaseAddrBank
                0x0060199c                __aeabi_unwind_cpp_pr1
                0x00603c08                misc_init_r
                0x006023d0                mvSysClkGet
                0x006019a4                raise
 .text          0x00603d10      0xea4 board/mv_feroceon/config_kw/libconfig_kw.a(mvCtrlEnvLib.o)
                0x00603fd4                mvCtrlTargetNameGet
                0x00603da8                mvCtrlModelGet
                0x00603ea0                mvCtrlEthMaxPortGet
                0x006047f4                mvCtrlAddrDecShow
                0x0060415c                mvCtrlIsBootFromSPI
                0x00603d18                mvCtrlMppRegGet
                0x0060486c                mvCtrlModelRevNameGet
                0x00603f0c                ctrlWinOverlapTest
                0x00604928                mvCtrlEnvInit
                0x00603d98                mvCtrlXorMaxChanGet
                0x00604048                ctrlRegToSize
                0x006046a8                mvCtrlPwrMemGet
                0x00603da0                mvCtrlUsbMaxGet
                0x006040f8                mvCtrlSysRstLengthCounterGet
                0x006041c0                mvCtrlIsBootFromSPIUseNAND
                0x00603f78                ctrlWinWithinWinTest
                0x006047a8                mvMPPConfigToDefault
                0x00604294                mvCtrlPwrSaveOff
                0x00604204                mvCtrlIsBootFromNAND
                0x006040a8                ctrlSizeRegRoundUp
                0x00604538                mvCtrlPwrMemSet
                0x00604518                mvCtrlModelRevGet
                0x00603e58                mvCtrlNandSupport
                0x00603ff0                ctrlSizeToReg
                0x00604764                mvMPPConfigToSPI
                0x00604820                mvCtrlNameGet
                0x006044b8                mvCtrlRevGet
                0x00603e1c                mvCtrlTsSupport
                0x00603d90                mvCtrlPexMaxIfGet
                0x00604408                mvCtrlPwrClckGet
                0x00604268                mvCtrlPwrSaveOn
                0x006042c0                mvCtrlPwrClckSet
 .text          0x00604bb4      0x80c board/mv_feroceon/config_kw/libconfig_kw.a(mvAhbToMbus.o)
                0x00604fc4                mvAhbToMbusWinTargetGet
                0x00604bbc                mvAhbToMbusInit
                0x00605174                mvAhbToMbusWinTargetSwap
                0x00604cf4                mvAhbToMbusWinRemap
                0x00605040                mvAhbToMbusWinSet
                0x00604da4                mvAhbToMbusWinGet
                0x00604e9c                mvAhbToMbusAddDecShow
                0x00604bc4                mvAhbToMbusWinEnable
                0x00604f6c                mvAhbToMbusWinAvailGet
 .text          0x006053c0      0xa44 board/mv_feroceon/config_kw/libconfig_kw.a(mvCpuIf.o)
                0x006053c8                mvCpuIfEnablePex
                0x0060572c                mvCpuIfTargetOfBaseAddressGet
                0x00605acc                mvCpuIfTargetWinSet
                0x006058fc                mvCpuIfTargetWinSizeGet
                0x006059ac                mvCpuIfTargetWinEnable
                0x0060579c                mvCpuIfTargetWinBaseHighGet
                0x0060584c                mvCpuIfTargetWinBaseLowGet
                0x00605430                mvCpuIfPexRemap
                0x00605490                mvCpuIfTargetWinGet
                0x00605478                mvCpuIfPciIfRemap
                0x006055bc                mvCpuIfAddDecShow
                0x00605c0c                mvCpuIfInit
 .text          0x00605e04      0x788 board/mv_feroceon/config_kw/libconfig_kw.a(mvSysXor.o)
                0x00605e0c                mvXorProtWinSet
                0x00605f04                mvXorTargetWinGet
                0x0060604c                mvXorAddrDecShow
                0x00606490                mvXorInit
                0x006061ec                mvXorTargetWinEnable
                0x006062e4                mvXorTargetWinSet
                0x00605ebc                mvXorPciRemap
 .text          0x0060658c      0x278 board/mv_feroceon/config_kw/libconfig_kw.a(mvSysDram.o)
                0x00606594                mvDramIfWinGet
                0x00606738                mvDramIfWinSet
                0x006066a0                mvDramIfWinEnable
 .text          0x00606804      0x748 board/mv_feroceon/config_kw/libconfig_kw.a(mvSysGbe.o)
                0x00606998                mvEthPortAddrDecShow
                0x00606ab8                mvEthWinTargetGet
                0x00606bcc                mvEthWinEnable
                0x0060680c                mvEthProtWinSet
                0x00606c8c                mvEthWinInit
                0x00606efc                mvEthInit
                0x00606a74                mvEthAddrDecShow
 .text          0x00606f4c      0x514 board/mv_feroceon/config_kw/libconfig_kw.a(mvSysTs.o)
                0x00607428                mvTsuInit
                0x00607004                mvTsuAddrDecShow
                0x006071d8                mvTsuWinEnable
                0x00607270                mvTsuWinInit
                0x006070e8                mvTsuWinTargetGet
 .text          0x00607460      0xf70 board/mv_feroceon/config_kw/libconfig_kw.a(mvSysPex.o)
                0x00607b30                mvPexTargetWinGet
                0x006079e4                mvPexBarEnable
                0x006075c0                mvPexTargetWinRemapEnable
                0x00608178                mvPexInit
                0x00607c24                mvPexAddrDecShow
                0x00607ee8                mvPexTargetWinEnable
                0x006076f0                mvPexBarGet
                0x00607580                pexBarNameGet
                0x0060763c                mvPexTargetWinRemap
                0x00607850                mvPexBarSet
                0x00607ff0                mvPexTargetWinSet
 .text          0x006083d0      0x3d0 board/mv_feroceon/config_kw/libconfig_kw.a(mvSysUsb.o)
                0x0060856c                mvUsbWinSet
                0x0060847c                mvUsbAddrDecShow
                0x0060867c                mvUsbWinInit
                0x00608770                mvUsbInit
                0x006083d8                mvUsbWinGet
 .text          0x006087a0      0x3ac board/mv_feroceon/config_kw/libconfig_kw.a(mvCpu.o)
                0x006087a8                mvCpuIfPrintSystemConfig
                0x006089c4                mvCpuPclkGet
                0x00608908                mvCpuNameGet
                0x00608a84                mvCpuL2ClkGet
 .text          0x00608b4c     0x18bc board/mv_feroceon/config_kw/libconfig_kw.a(mvBoardEnvLib.o)
                0x00609e7c                mvBoardMppMuxSet
                0x00608bbc                mvBoardIdGet
                0x00609fe8                mvBoardTdmLifeLineSet
                0x00608d2c                mvBoardTwsiExpAddrTypeGet
                0x00609020                mvBoardNandWidthGet
                0x006092e0                mvBoardUSBVbusGpioPinGet
                0x00608eb0                mvBoardRtcTwsiAddrTypeGet
                0x00609144                mvBoardMppGroupTypeSet
                0x00608b8c                mvBoardSpecInitGet
                0x006099cc                mvBoardFanPowerControl
                0x00609658                mvBoardSysClkGet
                0x00609184                mvBoardMppGroupTypeGet
                0x0060936c                mvBoardRTCGpioPinGet
                0x0060a32c                mvBoardEnvInit
                0x00609c1c                mvBoarModuleTypeGet
                0x0060a238                mvBoardDebugLed
                0x00608ba8                mvBoardDebugLedNumGet
                0x00608b94                mvBoardPexBridgeIntPinGet
                0x00609584                mvBoardSlicGpioPinGet
                0x00609258                mvBoarGpioPinNumGet
                0x0060a2d0                mvBoardNameGet
                0x0060973c                mvBoardTclkGet
                0x00609d9c                mvBoardIsPortInGmii
                0x00608f7c                boardGetDevCSNum
                0x00608c4c                mvBoardTwsiSatRAddrTypeGet
                0x006092f8                mvBoardResetGpioPinGet
                0x006098a0                mvBoardHDDPowerControl
                0x00608df8                mvBoardA2DTwsiAddrTypeGet
                0x00609550                mvBoardRevGet
                0x00608fdc                mvBoardGetDeviceWidth
                0x00609de4                mvBoardEgigaPhySwitchInit
                0x00609618                mvBoardMppModuleTypePrint
                0x006093b4                mvBoardIsSwitchConnected
                0x006094a8                mvBoardLinkStatusIrqGet
                0x006090e0                mvBoardVoiceAssemblyModeGet
                0x00609378                mvBoardSmiScanModeGet
                0x006092d4                mvBoardUSBVbusEnGpioPinGet
                0x00608d9c                mvBoardA2DTwsiAddrGet
                0x00609774                mvBoardSDioWPControl
                0x0060922c                mvBoardGpioIntMaskLowGet
                0x00608fbc                mvBoardGetDeviceBusWidth
                0x00609b88                mvBoarTwsiSatRGet
                0x0060956c                mvBoardModelGet
                0x00609200                mvBoardGpioIntMaskHighGet
                0x00609454                mvBoardSwitchPortGet
                0x006091cc                mvBoardMppGet
                0x0060959c                mvBoardGetDeviceWinSize
                0x00608b54                mvBoardIsPortInSgmii
                0x006094e4                mvBoardMacSpeedGet
                0x00608e54                mvBoardRtcTwsiAddrGet
                0x00608cbc                mvBoardTwsiExpAddrGet
                0x00609418                mvBoardSwitchCpuPortGet
                0x00608bdc                mvBoardTwsiSatRAddrGet
                0x006095e8                mvBoardGetDeviceBaseAddr
                0x00609518                mvBoardPhyAddrGet
                0x00609af4                mvBoarTwsiSatRSet
                0x00609304                mvBoardReset
                0x0060907c                mvBoardGetDevicesNumber
                0x00609cac                mvBoardMppGroupIdUpdate
                0x006092ec                mvBoardSDIOGpioPinGet
 .text          0x0060a408        0x0 board/mv_feroceon/config_kw/libconfig_kw.a(mvBoardEnvSpec.o)
 .text          0x0060a408      0xdb8 board/mv_feroceon/config_kw/libconfig_kw.a(mv_flash.o)
                0x0060ab8c                sflashInfoCopy
                0x0060a55c                sflash_print_info
                0x0060a6b4                sflash_cmd
                0x0060a4a4                mv_write_buff
                0x0060afa0                flashMvInfoCopy
                0x0060ae7c                mvFlash_init
                0x0060ad34                mv_flash_real_protect
                0x0060ac58                sflash_init
                0x0060a408                getMvFlashInfo
                0x0060a44c                getMvFlashInfoNum
                0x0060ac88                mv_flash_real_protect_bank
                0x0060ad8c                mv_flash_erase
                0x0060ab34                mv_flash_print_info
                0x0060a510                sflash_erase
                0x0060b0d0                flashInfoCopy
 .text          0x0060b1c0      0x680 board/mv_feroceon/config_kw/libconfig_kw.a(mv_pageTable.o)
                0x0060b258                cpuCfgEnable
                0x0060b280                disableIDCache
                0x0060b34c                pageTableInit
                0x0060b1d0                mmuInvCache
                0x0060b1c8                mmuSetDomainAccessControl
                0x0060b214                mmuFlushTLB
                0x0060b29c                getDCacheAssociativity
                0x0060b5f0                cpumap_cmd
                0x0060b330                getDCacheLine
                0x0060b1c0                mmuSetPageTabBase
                0x0060b300                getDCacheSize
 .text          0x0060b840      0x13c board/mv_feroceon/config_kw/libconfig_kw.a(mv_mon_init.o)
                0x0060b840                PTexist
                0x0060b898                mon_extension_after_relloc
 .text          0x0060b97c      0xc50 board/mv_feroceon/config_kw/libconfig_kw.a(mv_pci.o)
                0x0060bd7c                me_cmd
                0x0060c128                pci_init_board
                0x0060bdf4                scanPci
                0x0060c0bc                sp_cmd
                0x0060ba24                mv_mem_ctrl_dev
                0x0060bbd0                mapPci_cmd
                0x0060bcb0                se_cmd
 .text          0x0060c5cc     0x1cb0 board/mv_feroceon/config_kw/libconfig_kw.a(mv_ide.o)
                0x0060c5ec                mvGetSataDeviceType
                0x0060c8a0                ide_read_write
                0x0060ce6c                ide_read
                0x0060da98                do_diskboot
                0x0060c65c                InitChannel
                0x0060c75c                mvSataEventNotify
                0x0060ddb4                do_ide
                0x0060c6c0                check_ide_hdd_presented
                0x0060c6ac                ide_get_dev
                0x0060ce90                mvGetPMDeviceInfo
                0x0060cfa8                ide_init
                0x0060ce48                ide_write
 .text          0x0060e27c      0x91c board/mv_feroceon/config_kw/libconfig_kw.a(mv_protectionUnit.o)
                0x0060e3b0                get_control
                0x0060e8f8                MPU_Init
                0x0060e460                get_prot_attrib
                0x0060e620                mpuInvCache
                0x0060e6a8                mpuMap
                0x0060e68c                _disableIDCache
                0x0060e3b8                set_control
                0x0060e664                _cpuCfgEnable
 .text          0x0060eb98      0x39c board/mv_feroceon/config_kw/libconfig_kw.a(mv_ext2_boot.o)
                0x0060eb98                do_bootext2
 .text          0x0060ef34      0x31c board/mv_feroceon/config_kw/libconfig_kw.a(mvCommon.o)
                0x0060ef60                mvBinToAscii
                0x0060ef34                mvLog2
                0x0060f108                mvMacStrToHex
                0x0060f008                mvAsciiToHex
                0x0060f188                mvSizePrint
                0x0060f054                mvMacHexToStr
                0x0060efb4                mvBinToHex
                0x0060f0a0                mvHexToBin
 .text          0x0060f250      0x14c board/mv_feroceon/config_kw/libconfig_kw.a(mvOs.o)
                0x0060f2a8                mvOsCpuPartGet
                0x0060f2e4                mvOsIoVirtToPhy
                0x0060f37c                mvOsIoUncachedMalloc
                0x0060f2cc                mvOsCpuRevGet
                0x0060f258                mvOsCpuAsciiGet
                0x0060f304                mvOsStrCmp
                0x0060f270                mvOsCpuVarGet
                0x0060f34c                mvOsIoCachedFree
                0x0060f2f4                mvOsCacheInvalidate
                0x0060f35c                mvOsIoCachedMalloc
                0x0060f354                mvOsIoUncachedFree
                0x0060f2fc                mvOsRand
                0x0060f2ec                mvOsCacheFlush
                0x0060f28c                mvOsCpuArchGet
 .text          0x0060f39c      0x850 board/mv_feroceon/config_kw/libconfig_kw.a(mvFlashCom.o)
                0x0060f5cc                flashAddrExt
                0x0060f4e8                mvFlashVenIdGet
                0x0060f500                mvFlashBaseAddrGet
                0x0060f708                flashPrint
                0x0060f50c                mvFlashBusWidthGet
                0x0060f3b4                mvFlashSecSizeGet
                0x0060f3a8                mvFlashNumOfSecsGet
                0x0060f524                mvFlashNumOfDevGet
                0x0060f518                mvFlashDevWidthGet
                0x0060f654                flashBusWidthWr
                0x0060f468                mvFlashInWhichSec
                0x0060f568                mvFlashSizeGet
                0x0060f3f0                mvFlashSecLockGet
                0x0060f6d4                flashBusWidthDataWr
                0x0060f4f4                mvFlashDevIdGet
                0x0060f4dc                mvFlashSecTypeGet
                0x0060f39c                mvFlashIsHwLock
                0x0060f61c                flashBusWidthRd
                0x0060f590                flashDataExt
                0x0060f42c                mvFlashSecOffsGet
                0x0060f688                flashCmdSet
 .text          0x0060fbec     0x56bc board/mv_feroceon/config_kw/libconfig_kw.a(mvSata.o)
                0x00614058                mvSataChannelFarLoopbackDiagnostic
                0x00610a5c                mvSataSetIntCoalParams
                0x00612798                mvSataChannelPhyPowerOn
                0x00613b8c                mvSataConfigureChannel
                0x00611d94                mvSata60X1B2CheckDevError
                0x006106dc                mvSataGetInterfaceSpeed
                0x00610598                mvSataSetInterruptsScheme
                0x0061065c                mvSataGetInterfacePowerState
                0x00610458                mvSataShutdownAdapter
                0x006128d4                mvSataInitAdapter
                0x00614334                mvSataInterruptServiceRoutine
                0x0061082c                mvSataCheckPendingInterrupt
                0x00613744                mvSataEnableStaggeredSpinUp
                0x0061391c                mvSataChannelHardReset
                0x00613d04                mvSataDisableChannelDma
                0x00610868                mvSataChannelPhyShutdown
                0x00611044                _setActivePMPort
                0x00610f64                disableSaDevInterrupts
                0x006105d0                mvSataUnmaskAdapterInterrupt
                0x006150e8                mvSataQueueCommand
                0x00610938                mvSataSetChannelPhyParams
                0x00610490                mvSataRemoveChannel
                0x00610758                mvSataDisableStaggeredSpinUp
                0x00613608                mvSataSetInterfaceSpeed
                0x006105ac                mvSataMaskAdapterInterrupt
                0x0061178c                mvSataEnableChannelDma
                0x006137b4                mvSataEnableStaggeredSpinUpAll
                0x00610608                mvSataIfD2HReceived
                0x00610480                mvSataWriteReg
                0x006104c0                mvSataSetFBSMode
                0x006118dc                mvSataIsStorageDeviceConnected
                0x00613fe4                waitForBusyAfterHReset
                0x0061052c                mvSataNumOfDmaCommands
                0x006110ec                mvSataConfigEdmaMode
                0x00610550                mvSataGetNumOfPortQueuedCommands
                0x006117d8                mvSataSetInterfacePowerState
                0x00613b30                mvSataFlushDmaQueue
                0x006107d8                mvSataDisableStaggeredSpinUpAll
                0x00610c2c                mvSataReadReg
 .text          0x006152a8     0x1230 board/mv_feroceon/config_kw/libconfig_kw.a(mvStorageDev.o)
                0x00615860                mvStorageDevATASoftResetDevice
                0x006163a8                mvStorageDevATASetFeatures
                0x00616408                mvStorageDevATAIdentifyDevice
                0x006158dc                executeNonUDMACommand
                0x00615e24                _PMAccessReg
                0x0061532c                mvStorageDevSetDeviceType
                0x00615584                mvStorageDevATAIdleImmediate
                0x0061612c                mvPMDevEnableStaggeredSpinUpPort
                0x00615d60                mvStorageDevExecutePIO
                0x006154c4                waitForDRQ
                0x0061570c                mvStorageIsDeviceBsyBitOff
                0x006152d8                disableStorageDevInterrupt
                0x00615fdc                mvPMLinkUp
                0x0061547c                _startSoftResetDevice
                0x0061562c                dumpAtaDeviceRegisters
                0x0061580c                mvStorageDevATAStartSoftResetDevice
                0x0061537c                _doSoftReset
                0x00616060                mvPMDevReadReg
                0x0061541c                waitForDRQToClear
                0x006161bc                mvPMDevEnableStaggeredSpinUpAll
                0x0061576c                waitWhileStorageDevIsBusy_88SX60X1
                0x00615308                _isDeviceBsyBitOff
                0x006152a8                enableStorageDevInterrupt
                0x00616308                mvStorageDevATAExecuteNonUDMACommand
                0x00615f70                mvPMDevWriteReg
                0x00615524                waitWhileStorageDevIsBusy
                0x00616058                mvPMDevEnableStaggeredSpinUp
                0x00615358                mvStorageDevGetDeviceType
 .text          0x006164d8      0xc38 board/mv_feroceon/config_kw/libconfig_kw.a(mvSFlash.o)
                0x00616cf0                mvSFlashStatRegLock
                0x006164d8                mvSFlashSizeGet
                0x00616580                mvSFlashPowerSaveExit
                0x00616518                mvSFlashPowerSaveEnter
                0x00617024                mvSFlashInit
                0x00616e78                mvSFlashFastBlockRd
                0x00616b54                mvSFlashBlockWr
                0x006167bc                mvSFlashWpRegionGet
                0x006164ec                mvSFlashModelGet
                0x00616f30                mvSFlashSectorErase
                0x006169f4                mvSFlashChipErase
                0x00616680                mvSFlashIdGet
                0x00616604                mvSFlashBlockRd
                0x00616d5c                mvSFlashWpRegionSet
 .text          0x00617110      0xc6c board/mv_feroceon/config_kw/libconfig_kw.a(mvEthPhy.o)
                0x006175e0                mvEthE1011PhyBasicInit
                0x00617680                mvEthE1116PhyBasicInit
                0x00617208                mvEthPhyRegWrite
                0x0061789c                mvEth1121PhyBasicInit
                0x00617338                mvEthSgmiiToCopperPhyBasicInit
                0x006177b8                mvEthE1112PhyBasicInit
                0x00617b18                mvEthPhyReset
                0x00617bb4                mvEthE1111PhyBasicInit
                0x00617c7c                mvEthPhyPrintStatus
                0x00617298                mvEthPhyCheckLink
                0x006175d8                mvEthE1112PhyPowerDown
                0x00617990                mvEth1145PhyBasicInit
                0x006175d0                mvEthE1112PhyPowerUp
                0x00617118                mvEthPhyRegRead
                0x00617a7c                mvEthPhyRestartAN
 .text          0x00617d7c      0x244 board/mv_feroceon/config_kw/libconfig_kw.a(mvRtc.o)
                0x00617fbc                mvRtcInit
                0x00617ef0                mvRtcTimeGet
                0x00617d84                mvRtcTimeSet
 .text          0x00617fc0      0x948 board/mv_feroceon/config_kw/libconfig_kw.a(mvTwsi.o)
                0x00618708                mvTwsiRead
                0x006184f0                mvTwsiStopBitSet
                0x006182ec                mvTwsiAddrSet
                0x00618648                mvTwsiWrite
                0x00618590                mvTwsiStartBitSet
                0x00618014                mvTwsiInit
                0x00617fc8                twsiTimeoutChk
 .text          0x00618908      0x238 board/mv_feroceon/config_kw/libconfig_kw.a(mvGpp.o)
                0x00618954                mvGppValueGet
                0x00618af8                mvGppTypeSet
                0x00618ab0                mvGppBlinkEn
                0x006189c0                mvGppValueSet
                0x00618a68                mvGppPolaritySet
                0x00618910                mvGppPolarityGet
 .text          0x00618b40      0x4d0 board/mv_feroceon/config_kw/libconfig_kw.a(mvSpi.o)
                0x00618ebc                mvSpiCsAssert
                0x00618dd4                mvSpiReadWrite
                0x00618c6c                mvSpiRead
                0x00618ea4                mvSpiCsDeassert
                0x00618d20                mvSpiWrite
                0x00618fa0                mvSpiInit
                0x00618ee4                mvSpiBaudRateSet
 .text          0x00619010      0x178 board/mv_feroceon/config_kw/libconfig_kw.a(mvSpiCmnd.o)
                0x006190b8                mvSpiWriteThenWrite
                0x00619010                mvSpiWriteThenRead
                0x00619130                mvSpiReadAndWrite
 .text          0x00619188      0x698 board/mv_feroceon/config_kw/libconfig_kw.a(mvUsb.o)
                0x00619228                mvUsbRegs
                0x006191e4                mvUsbPowerUp
                0x00619350                mvUsbHalInit
                0x00619190                mvUsbGetCapRegAddr
                0x0061922c                mvUsbCoreRegs
                0x0061919c                mvUsbPowerDown
                0x0061927c                mvUsbPhy65nmNewInit
 .text          0x00619820      0x830 board/mv_feroceon/config_kw/libconfig_kw.a(mvXor.o)
                0x00619ee0                mvXorHalInit
                0x00619894                mvXorEccCurrTimerGet
                0x00619d44                mvXorCommandSet
                0x00619b64                mvXorEccClean
                0x006198b0                mvXorStateGet
                0x00619828                mvXorCtrlSet
                0x0061991c                mvXorTransfer
                0x00619a3c                mvXorMemInit
                0x00619f24                mvXorOverrideSet
 .text          0x0061a050     0x25ac board/mv_feroceon/config_kw/libconfig_kw.a(mvEth.o)
                0x0061aaa8                mvEthMacAddrSet
                0x0061bad0                mvEthCoalGet
                0x0061b9d0                mvEthRxFilterModeSet
                0x0061ae9c                mvEthTosToRxqGet
                0x0061afe0                mvEthVlanPrioRxQueue
                0x0061bc38                mvEthRxCoalSet
                0x0061a2ac                mvEthMaxRxSizeSet
                0x0061b750                mvEthHeaderModeSet
                0x0061b578                mvEthPortPowerDown
                0x0061b060                mvEthBpduRxQueue
                0x0061c564                mvEthHalInit
                0x0061aa50                mvEthSetOtherMcastTable
                0x0061add0                mvEthMibCountersClear
                0x0061b11c                mvEthArpRxQueue
                0x0061a338                mvEthMacAddrGet
                0x0061c240                mvEthPortFinish
                0x0061a0ec                mvEthPortForceTxDone
                0x0061bbb4                mvEthTxCoalSet
                0x0061a9f8                mvEthSetSpecialMcastTable
                0x0061b8b8                mvEthSpeedDuplexSet
                0x0061a3c0                mvEthMcastCrc8Get
                0x0061abbc                mvEthMcastAddrSet
                0x0061b6b8                mvEthEjpModeSet
                0x0061a1ac                mvEthPortForceRx
                0x0061b194                mvEthTcpRxQueue
                0x0061bcbc                mvEthPortDown
                0x0061b308                mvEthPhyAddrSet
                0x0061b600                mvEthPortPowerUp
                0x0061b394                ethResetRxDescRing
                0x0061a06c                mvEthMemAttrGet
                0x0061b7e8                mvEthFlowCtrlSet
                0x0061af24                mvEthTosToRxqSet
                0x0061b210                mvEthUdpRxQueue
                0x0061ae0c                mvEthPortEnable
                0x0061c2c8                mvEthPortInit
                0x0061b47c                ethResetTxDescRing
                0x0061bf48                mvEthDefaultsSet
                0x0061ad64                mvEthMibCounterRead
                0x0061b354                mvEthPhyAddrGet
                0x0061b28c                mvEthStatusGet
                0x0061a088                mvEthPortUp
                0x0061be98                mvEthPortDisable
 .text          0x0061c5fc      0x2a8 board/mv_feroceon/config_kw/libconfig_kw.a(mvPciIf.o)
                0x0061c7a8                mvPciIfConfigWrite
                0x0061c60c                mvPciRealIfNumGet
                0x0061c76c                mvPciIfMasterEnable
                0x0061c7fc                mvPciIfConfigRead
                0x0061c670                mvPciIfLocalDevNumSet
                0x0061c6ac                mvPciIfLocalBusNumGet
                0x0061c5fc                mvPciIfTypeGet
                0x0061c854                mvPciIfInit
                0x0061c638                mvPciIfLocalDevNumGet
                0x0061c6e4                mvPciIfLocalBusNumSet
                0x0061c720                mvPciIfSlaveEnable
 .text          0x0061c8a4      0x8f4 board/mv_feroceon/config_kw/libconfig_kw.a(mvPex.o)
                0x0061caec                mvPexLocalBusNumSet
                0x0061cf70                mvPexHalInit
                0x0061ca78                mvPexLocalDevNumSet
                0x0061ce94                mvPexModeGet
                0x0061ccc0                mvPexConfigRead
                0x0061c924                mvPexForceX1
                0x0061cb60                mvPexMasterEnable
                0x0061cbc4                mvPexConfigWrite
                0x0061ca00                mvPexLocalDevNumGet
                0x0061c9ac                mvPexPhyRegRead
                0x0061cf3c                mvPexIsPowerUp
                0x0061c970                mvPexPhyRegWrite
                0x0061ce04                mvPexSlaveEnable
                0x0061c8ac                mvPexPowerDown
                0x0061ca3c                mvPexLocalBusNumGet
 .text          0x0061d198     0x13f0 board/mv_feroceon/config_kw/libconfig_kw.a(mvTsu.o)
                0x0061e048                mvTsuRxNextBuffGet
                0x0061df3c                mvTsuTxFreeBuffCountGet
                0x0061e128                mvTsuRxFullBuffCountGet
                0x0061d1f8                mvTsuHalInit
                0x0061dbd0                mvTsuPortSignalCfgSet
                0x0061d44c                mvTsuRxTimestampCntEn
                0x0061d9f0                mvTsuRxFlushErrorPackets
                0x0061d820                mvTsuTxInitTimeStampSet
                0x0061d1a8                mvTsuPortReset
                0x0061df7c                mvTsuTxNextBuffGet
                0x0061e228                mvTsuBuffersInit
                0x0061d4c0                mvTsuRxBuffFree
                0x0061dd04                mvTsuPortInit
                0x0061d270                mvTsuPortSignalCfgGet
                0x0061dae4                mvTsuAggrMode1TmsOnPcktEn
                0x0061d6d0                mvTsuTxStatusGet
                0x0061da64                mvTsuRxSyncDetectionSet
                0x0061d5b0                mvTsuTxBuffPut
                0x0061d8f4                mvTsuTxClockFreqSet
                0x0061d7a0                mvTsuTxDone
                0x0061d3e4                mvTsuRxSyncDetectionGet
                0x0061d1a0                mvTsuShutdown
                0x0061d36c                mvTsuStatusGet
                0x0061e1b0                mvTsuPortShutdown
                0x0061db58                mvTsuDmaWatermarkSet
 .text          0x0061e588     0x10dc board/mv_feroceon/config_kw/libconfig_kw.a(mvMD5.o)
                0x0061e588                mvMD5Init
                0x0061f508                mvHmacMd5
                0x0061f618                mvMD5
                0x0061f398                mvMD5Final
                0x0061f44c                mvMD5Update
 .text          0x0061f664      0x780 board/mv_feroceon/config_kw/libconfig_kw.a(mvSwitch.o)
                0x0061fb0c                mvEthE6063SwitchBasicInit
                0x0061fb3c                mvEthE6065_61SwitchBasicInit
                0x0061fb6c                mvEthE6161SwitchBasicInit
                0x0061fd10                mvEthE6131SwitchBasicInit
 .text          0x0061fde4      0x454 board/mv_feroceon/config_kw/libconfig_kw.a(mvCtrlEnvAddrDec.o)
                0x0061fe2c                mvCtrlAddrDecToReg
                0x0061ffa8                mvCtrlTargetGet
                0x0062013c                mvCtrlAttribGet
                0x006200cc                mvCtrlParamsToAddrDec
                0x0061fdec                mvCtrlRegToAddrDec
                0x0061fe78                mvCtrlAddrDecToParams
 .text          0x00620238      0x3d0 board/mv_feroceon/config_kw/libconfig_kw.a(mvSysSata.o)
                0x006202ec                mvSataAddrDecShow
                0x006203e8                mvSataWinSet
                0x00620240                mvSataWinGet
                0x00620518                mvSataWinInit
 .text          0x00620608      0xad0 board/mv_feroceon/config_kw/libconfig_kw.a(mvPciUtils.o)
                0x00620608                mvPciClassNameGet
                0x00620f84                mvPciScan
 .text          0x006210d8        0x8 board/mv_feroceon/config_kw/libconfig_kw.a(mvOsSata.o)
                0x006210dc                mvSwapWord
                0x006210d8                mvSwapShort
 .text          0x006210e0      0x4f4 cpu/arm926ejs/libarm926ejs.a(interrupts.o)
                0x006210ec                set_timer
                0x006212f4                reset_timer
                0x006214cc                do_fiq
                0x006212f8                interrupt_init
                0x006215a8                do_undefined_instruction
                0x00621334                show_regs
                0x006214a0                do_irq
                0x006210fc                get_tbclk
                0x006211e8                get_timer
                0x00621220                reset_timer_masked
                0x0062147c                bad_mode
                0x00621104                get_timer_masked
                0x00621268                udelay
                0x00621198                udelay_masked
                0x00621550                do_prefetch_abort
                0x00621204                get_ticks
                0x006210e4                disable_interrupts
                0x006214f8                do_not_used
                0x00621524                do_data_abort
                0x0062157c                do_software_interrupt
                0x006210e0                enable_interrupts
 .text          0x006215d4      0x504 lib_arm/libarm.a(board.o)
                0x006216cc                hang
                0x006216e8                start_armboot
                0x006215d4                sbrk
 .text          0x00621ad8        0x4 lib_arm/libarm.a(cache.o)
                0x00621ad8                flush_cache
 .text          0x00621adc     0x149c net/libnet.a(net.o)
                0x00621ce0                getenv_IPaddr
                0x00621b84                NetCksumOk
                0x006227c8                NetSetTimeout
                0x00621bb0                copy_filename
                0x00621cf8                NetEthHdrSize
                0x00621da4                ip_to_string
                0x00622a5c                ArpTimeoutCheck
                0x0062217c                NetReceive
                0x00621c68                string_to_ip
                0x00622800                NetSendUDPPacket
                0x00621df8                print_IPaddr
                0x00621e24                NetSetEther
                0x00622ad8                NetLoop
                0x00622084                ArpRequest
                0x00621d44                VLAN_to_string
                0x00621c50                getenv_VLAN
                0x00621b40                NetCksum
                0x00621ee8                NetSetIP
                0x00621c00                string_to_VLAN
                0x0062296c                NetStartAgain
                0x00621b30                NetSetHandler
                0x00622680                PingSend
                0x00622080                NetSendPacket
 .text          0x00622f78      0x648 net/libnet.a(tftp.o)
                0x00623110                TftpStart
 .text          0x006235c0      0xa04 net/libnet.a(bootp.o)
                0x00623bc0                DhcpRequest
                0x006239f4                BootpRequest
 .text          0x00623fc4      0x1a4 net/libnet.a(rarp.o)
                0x00623fc4                RarpRequest
 .text          0x00624168      0x6a0 net/libnet.a(eth.o)
                0x00624290                eth_get_dev_by_name
                0x006241c4                eth_halt
                0x00624458                eth_register
                0x00624168                eth_get_dev
                0x00624364                eth_try_another
                0x006244e8                eth_set_enetaddr
                0x006245a4                eth_initialize
                0x006242ec                eth_set_current
                0x0062423c                eth_rx
                0x00624178                eth_get_dev_index
                0x006243e8                eth_init
                0x00624270                eth_get_name
                0x00624200                eth_send
 .text          0x00624808      0x8e4 net/libnet.a(rcvr.o)
                0x006249e8                RecoverRequest
 .text          0x006250ec      0x378 disk/libdisk.a(part.o)
                0x00625204                dev_print
                0x00625194                print_part
                0x006253e4                get_partition_info
                0x00625428                init_part
 .text          0x00625464      0x524 disk/libdisk.a(part_dos.o)
                0x00625754                get_partition_info_dos
                0x00625954                print_part_dos
                0x006254ac                test_part_dos
 .text          0x00625988      0x73c disk/libdisk.a(part_efi.o)
                0x00625f7c                print_part_efi
                0x00625a64                test_part_efi
                0x00625e7c                get_partition_info_efi
 .text          0x006260c4     0x1b38 drivers/libdrivers.a(cfi_flash.o)
                0x00626510                flash_get_size
                0x0062610c                flash_read_ushort
                0x00627970                flash_erase
                0x00626c2c                flash_read_user_serial
                0x00627b24                flash_init
                0x006260c4                flash_add_base_addr
                0x006277dc                flash_print_info
                0x00626134                flash_read_long
                0x00626fd0                flash_real_protect
                0x006260ec                flash_read_uchar
                0x006260d8                flash_make_addr
                0x00626bc4                flash_read_factory_serial
                0x00627264                write_buff
 .text          0x00627bfc      0xac8 drivers/libdrivers.a(pci.o)
                0x006283bc                pci_cfgfunc_config_device
                0x006283ec                pci_hose_scan_bus
                0x0062861c                pci_hose_phys_to_bus
                0x006283e4                pci_cfgfunc_do_nothing
                0x00627c2c                pci_hose_read_config_dword
                0x00627c8c                pci_hose_read_config_byte_via_dword
                0x00628170                pci_hose_config_device
                0x00628310                pci_find_config
                0x00627c5c                pci_hose_write_config_word
                0x00627f64                pci_read_config_dword
                0x00628570                pci_hose_bus_to_phys
                0x00627d24                pci_hose_write_config_byte_via_dword
                0x00627cd8                pci_hose_read_config_word_via_dword
                0x006283e8                pci_init
                0x00627fb0                pci_read_config_word
                0x0062854c                pci_hose_scan
                0x00628154                pci_find_device
                0x00627da4                pci_hose_write_config_word_via_dword
                0x0062804c                pci_find_devices
                0x00627e28                pci_register_hose
                0x00627e50                pci_bus_to_hose
                0x00627f1c                pci_write_config_byte
                0x00627c74                pci_hose_write_config_dword
                0x00627c14                pci_hose_read_config_word
                0x00628000                pci_read_config_byte
                0x00627c44                pci_hose_write_config_byte
                0x00627ed4                pci_write_config_word
                0x00627e8c                pci_write_config_dword
                0x00627bfc                pci_hose_read_config_byte
 .text          0x006286c4      0x5ac drivers/libdrivers.a(pci_auto.o)
                0x006286c4                pciauto_region_init
                0x00628750                pciauto_config_init
                0x006286ec                pciauto_region_allocate
                0x00628820                pciauto_setup_device
                0x006286d0                pciauto_region_align
                0x00628984                pciauto_config_device
 .text          0x00628c70       0xa4 drivers/nand/libnand.a(nand.o)
                0x00628c70                nand_init
 .text          0x00628d14     0x29a4 drivers/nand/libnand.a(nand_base.o)
                0x0062b538                nand_read_raw
                0x006292a0                nand_scan
                0x0062a334                nand_erase_nand
                0x006291fc                nand_release
 .text          0x0062b6b8        0x0 drivers/nand/libnand.a(nand_ids.o)
 .text          0x0062b6b8      0x2c0 drivers/nand/libnand.a(nand_ecc.o)
                0x0062b7d4                nand_correct_data
                0x0062b6b8                nand_calculate_ecc
 .text          0x0062b978     0x16cc drivers/nand/libnand.a(nand_bbt.o)
                0x0062ba30                nand_isbad_bbt
                0x0062cf70                nand_default_bbt
                0x0062c448                nand_update_bbt
                0x0062caf8                nand_scan_bbt
 .text          0x0062d044      0xed0 drivers/nand/libnand.a(nand_util.o)
                0x0062d09c                nand_lock
                0x0062d114                nand_unlock
                0x0062d244                nand_get_lock_status
                0x0062db78                nand_erase_opts
                0x0062d2d8                nand_read_opts
                0x0062d65c                nand_write_opts
                0x0062d04c                nand_reset
 .text          0x0062df14      0xa28 common/libcommon.a(main.o)
                0x0062df14                run_command
                0x0062e40c                do_run
                0x0062e578                readline
                0x0062e794                main_loop
 .text          0x0062e93c       0x80 common/libcommon.a(cmd_boot.o)
                0x0062e93c                do_go
 .text          0x0062e9bc      0xbb4 common/libcommon.a(cmd_bootm.o)
                0x0062eb64                print_image_hdr
                0x0062ef40                do_bootd
                0x0062e9dc                gunzip
                0x0062ef6c                do_bootm
 .text          0x0062f570      0x334 common/libcommon.a(cmd_date.o)
                0x0062f78c                do_date
                0x0062f5b4                mk_date
 .text          0x0062f8a4      0x264 common/libcommon.a(cmd_eeprom.o)
                0x0062f9c0                do_eeprom
                0x0062f8b8                eeprom_write
                0x0062f93c                eeprom_read
                0x0062f8a4                eeprom_init
                0x0062f8a8                eeprom_probe
 .text          0x0062fb08      0x718 common/libcommon.a(cmd_ext2.o)
                0x006300c8                do_ext2ls
                0x0062fb80                failsafe
                0x0062fda8                do_ext2load
 .text          0x00630220      0xf98 common/libcommon.a(cmd_flash.o)
                0x006310e4                do_flinfo
                0x00630d10                flash_sect_erase
                0x006308c4                do_protect
                0x00630e10                do_flerase
                0x0063042c                flash_sect_protect
 .text          0x006311b8      0x8c8 common/libcommon.a(cmd_i2c.o)
                0x00631558                do_i2c_crc
                0x00631a20                do_i2c_nm
                0x006316b8                do_i2c_mw
                0x006312f8                do_i2c_probe
                0x00631a50                do_i2c_mm
                0x00631354                do_i2c_md
                0x006311d8                do_i2c_loop
 .text          0x00631a80     0x20fc common/libcommon.a(cmd_jffs2.o)
                0x0063381c                do_jffs2_chpart
                0x00632c70                mtdparts_init
                0x006321c4                id_parse
                0x006322b4                find_dev_and_part
                0x006338dc                do_jffs2_fsinfo
                0x00633970                do_jffs2_ls
                0x006332a4                do_jffs2_mtdparts
                0x006339f0                do_jffs2_fsload
 .text          0x00633b7c      0xd2c common/libcommon.a(cmd_mem.o)
                0x00633dac                do_mem_base
                0x006345d0                do_mem_mw
                0x00633ce8                do_mem_crc
                0x00634110                do_mem_nm
                0x00634140                do_mem_mm
                0x00634270                do_mem_cp
                0x00633b7c                do_check_crc32
                0x00633df8                do_mem_mtest
                0x00634424                do_mem_cmp
                0x00633f28                cmd_get_data_size
                0x00634170                do_mem_loop
                0x006346a8                do_mem_md
 .text          0x006348a8     0x1198 common/libcommon.a(cmd_nand.o)
                0x00634c60                do_nandboot
                0x00634e88                do_nand
 .text          0x00635a40      0x38c common/libcommon.a(cmd_net.o)
                0x00635da8                do_rarpb
                0x00635a40                do_ping
                0x00635db4                do_tftpb
                0x00635d9c                do_dhcp
                0x00635dc0                do_bootp
 .text          0x00635dcc      0x970 common/libcommon.a(cmd_nvedit.o)
                0x00635f4c                getenv
                0x00635fd0                _do_setenv
                0x00635e44                getenv_r
                0x00636584                do_printenv
                0x00636540                setenv
                0x00635f18                do_saveenv
                0x006364f8                do_setenv
 .text          0x0063673c     0x1194 common/libcommon.a(cmd_pci.o)
                0x00636870                pci_header_show
                0x006371fc                pciinfo
                0x006374b4                do_pci
                0x0063717c                pci_header_show_brief
 .text          0x006378d0      0xf10 common/libcommon.a(cmd_scsi.o)
                0x006380ec                scsi_scan
                0x00637904                scsi_ident_cpy
                0x00637b24                scsi_setup_write_ext
                0x0063878c                scsi_init
                0x00637c90                scsi_read
                0x006379e0                scsi_setup_read_capacity
                0x006378f0                scsi_get_dev
                0x006379a8                scsi_setup_test_unit_ready
                0x00637a2c                scsi_setup_read_ext
                0x00638414                do_scsi
                0x00637ad4                scsi_setup_inquiry
                0x00637d80                do_scsiboot
                0x0063797c                scsi_trim_trail
                0x00637b80                check_scsi_hdd_presented
                0x00637a88                scsi_setup_read6
                0x00637ba0                scsi_write
 .text          0x006387e0      0x87c common/libcommon.a(command.o)
                0x006387e0                do_echo
                0x006389b4                cmd_auto_complete
                0x00638918                find_cmd
                0x00638e70                install_auto_complete
                0x00638eb8                do_help
                0x00638890                var_complete
                0x00638868                do_version
 .text          0x0063905c      0x53c common/libcommon.a(console.o)
                0x00639224                console_init_r
                0x0063945c                printf
                0x00639314                console_assign
                0x00639528                getc
                0x00639400                puts
                0x00639208                dbg
                0x006394a8                serial_printf
                0x00639134                ftstc
                0x006393ac                fprintf
                0x00639510                tstc
                0x0063941c                vprintf
                0x00639540                ctrlc
                0x006394f4                putc
                0x006391cc                disable_ctrlc
                0x00639104                fgetc
                0x006391e4                had_ctrlc
                0x00639164                fputc
                0x00639214                console_init_f
                0x006391f4                clear_ctrlc
                0x00639198                fputs
 .text          0x00639598      0x104 common/libcommon.a(devices.o)
                0x006395bc                device_register
                0x00639598                devices_done
                0x006395e8                devices_init
 .text          0x0063969c     0x1128 common/libcommon.a(dlmalloc.o)
                0x00639ab4                malloc
                0x0063a204                pvalloc
                0x0063a228                calloc
                0x006396d4                malloc_usable_size
                0x0063a310                realloc
                0x00639790                malloc_trim
                0x0063969c                malloc_bin_reloc
                0x00639718                mallopt
                0x0063a0ec                memalign
                0x00639ab0                cfree
                0x0063a21c                valloc
                0x00639868                free
 .text          0x0063a7c4      0x2b4 common/libcommon.a(env_common.o)
                0x0063a7e4                env_get_addr
                0x0063a834                env_complete
                0x0063a9cc                env_relocate
                0x0063a998                env_crc_update
                0x0063a7c4                env_get_char_memory
 .text          0x0063aa78      0x3c8 common/libcommon.a(env_nand.o)
                0x0063ac58                env_relocate_spec
                0x0063ab50                saveenv
                0x0063ab28                env_get_char_spec
                0x0063ab34                env_init
 .text          0x0063ae40       0xfc common/libcommon.a(exports.o)
                0x0063ae4c                jumptable_init
                0x0063ae44                get_version
 .text          0x0063af3c      0x400 common/libcommon.a(flash.o)
                0x0063b090                flash_write
                0x0063b218                flash_protect
                0x0063af3c                addr2info
                0x0063afb0                flash_perror
 .text          0x0063b33c      0x424 common/libcommon.a(lists.o)
                0x0063b668                DisposeHandle
                0x0063b690                ListDispose
                0x0063b478                ListInsertItems
                0x0063b344                ListSetAllocationPolicy
                0x0063b394                ListGetItemSize
                0x0063b388                ListGetDataPtr
                0x0063b694                NewHandle
                0x0063b3f4                SetHandleSize
                0x0063b660                ListInsertItem
                0x0063b33c                GetHandleSize
                0x0063b3a0                ListNumItems
                0x0063b358                ListGetPtrToItem
                0x0063b6f8                ListCreate
                0x0063b3ac                ListGetItems
 .text          0x0063b760      0x200 lib_generic/libgeneric.a(crc32.o)
                0x0063b760                crc32
                0x0063b860                crc32_no_comp
 .text          0x0063b960        0x0 lib_generic/libgeneric.a(ctype.o)
 .text          0x0063b960       0xd0 lib_generic/libgeneric.a(display_options.o)
                0x0063ba08                display_options
                0x0063b960                print_size
 .text          0x0063ba30      0x5f0 lib_generic/libgeneric.a(string.o)
                0x0063babc                strcpy
                0x0063bf1c                memscan
                0x0063be98                memmove
                0x0063be78                memcpy
                0x0063bde4                strswab
                0x0063bc70                strnlen
                0x0063bc30                strrchr
                0x0063bafc                strcat
                0x0063bfac                memchr
                0x0063bf40                strstr
                0x0063bba0                strncmp
                0x0063bad4                strncpy
                0x0063be4c                bcopy
                0x0063bd1c                strtok
                0x0063bee0                memcmp
                0x0063bb28                strncat
                0x0063bfdc                strdup
                0x0063be30                memset
                0x0063bb74                strcmp
                0x0063bda8                strsep
                0x0063ba4c                strnicmp
                0x0063bc98                strspn
                0x0063bc10                strlen
                0x0063bbe4                strchr
                0x0063bcdc                strpbrk
 .text          0x0063c020      0x844 lib_generic/libgeneric.a(vsprintf.o)
                0x0063c438                vsprintf
                0x0063c0e0                simple_strtol
                0x0063c3e0                panic
                0x0063c834                sprintf
                0x0063c020                simple_strtoul
 .text          0x0063c864     0x2f38 lib_generic/libgeneric.a(zlib.o)
                0x0063d7cc                inflate
                0x0063d20c                inflateInit2
                0x0063d690                inflateIncomp
                0x0063d35c                adler32
                0x0063d094                inflateReset
                0x0063d104                inflateSync
                0x0063d354                inflateInit
                0x0063cfec                inflateEnd
 .text          0x0063f79c      0x228 board/mv_feroceon/config_kw/libconfig_kw.a(mvCntmr.o)
                0x0063f7a4                mvCntmrLoad
                0x0063f88c                mvCntmrCtrlGet
                0x0063f7dc                mvCntmrRead
                0x0063f8e4                mvCntmrEnable
                0x0063f97c                mvCntmrStart
                0x0063f930                mvCntmrDisable
                0x0063f7f0                mvCntmrWrite
                0x0063f808                mvCntmrCtrlSet
 .text          0x0063f9c4      0x270 board/mv_feroceon/config_kw/libconfig_kw.a(mv_dram.o)
                0x0063faa8                dram_init
                0x0063fa9c                mvIntrfaceWidthPrint
                0x0063f9cc                mvIntrfaceParamPrint
 .text          0x0063fc34      0x124 board/mv_feroceon/config_kw/libconfig_kw.a(mv_serial.o)
                0x0063fc34                serial_setbrg
                0x0063fc80                serial_tstc
                0x0063fca0                serial_putc
                0x0063fd00                serial_init
                0x0063fcd4                serial_puts
                0x0063fc88                serial_getc
 .text          0x0063fd58       0xf4 board/mv_feroceon/config_kw/libconfig_kw.a(mv_rtc.o)
                0x0063fd5c                rtc_set
                0x0063fd58                rtc_reset
                0x0063fde0                rtc_get
 .text          0x0063fe4c       0x58 board/mv_feroceon/config_kw/libconfig_kw.a(mv_nand.o)
                0x0063fe4c                board_nand_init
 .text          0x0063fea4      0x9cc board/mv_feroceon/config_kw/libconfig_kw.a(mv_egiga.o)
                0x0063ff50                mv_eth_initialize
 .text          0x00640870      0x19c board/mv_feroceon/config_kw/libconfig_kw.a(mv_i2c.o)
                0x00640920                i2c_write
                0x006408b8                i2c_probe
                0x00640998                i2c_read
                0x00640870                i2c_init
 .text          0x00640a0c     0x1020 board/mv_feroceon/config_kw/libconfig_kw.a(mvDramIf.o)
                0x00640bd4                mvDramIfShow
                0x00640a64                mvDramIfCalGet
                0x00640c5c                mvDramIfDetect
                0x00640b9c                mvDramIfBankSizeGet
                0x00640c58                mvDramIfBankBaseGet
                0x00640ac4                mvDramIfSelfRefreshSet
                0x00640ba0                mvDramIfSizeGet
                0x00640b00                mvDramIfGetFirstCS
                0x00640a14                mvDramIfSingleBitErrThresholdSet
 .text          0x00641a2c       0x9c board/mv_feroceon/config_kw/libconfig_kw.a(mvUart.o)
                0x00641ab0                mvUartTstc
                0x00641a70                mvUartPutc
                0x00641a2c                mvUartInit
                0x00641a90                mvUartGetc
 .text          0x00641ac8     0x1520 board/mv_feroceon/config_kw/libconfig_kw.a(mvSpd.o)
                0x00641e54                dimmSpdPrint
                0x00642da0                mvDramBankInfoGet
                0x00642f1c                dimmSpdCpy
                0x00641b40                dimmSpdGet
 .text          0x00642fe8      0x224 cpu/arm926ejs/libarm926ejs.a(cpu.o)
                0x006430ec                cleanup_before_linux
                0x00643040                cpu_init
                0x00643048                icache_enable
                0x006431ec                do_reset
                0x0064306c                icache_disable
                0x006430b4                dcache_status
                0x006430d0                icache_status
                0x00643090                dcache_disable
 .text          0x0064320c      0x99c lib_arm/libarm.a(armlinux.o)
                0x0064343c                do_bootm_linux
 .text          0x00643ba8      0x840 fs/cramfs/libcramfs.a(cramfs.o)
                0x00643d54                cramfs_info
                0x00643ba8                cramfs_check
                0x00644300                cramfs_load
                0x0064418c                cramfs_ls
 .text          0x006443e8       0xf0 fs/cramfs/libcramfs.a(uncompress.o)
                0x006443e8                cramfs_uncompress_exit
                0x00644484                cramfs_uncompress_block
                0x00644408                cramfs_uncompress_init
 .text          0x006444d8     0x1a44 fs/jffs2/libjffs2.a(jffs2_1pass.o)
                0x006455f0                jffs2_1pass_load
                0x00644f78                jffs2_1pass_info
                0x006458c4                jffs2_1pass_ls
                0x006449a8                jffs2_1pass_rescan_needed
                0x00644510                mkmodestr
                0x0064471c                jffs2_free_cache
 .text          0x00645f1c       0xec fs/jffs2/libjffs2.a(compr_rtime.o)
                0x00645f1c                rtime_decompress
 .text          0x00646008      0x150 fs/jffs2/libjffs2.a(compr_rubin.o)
                0x00646108                dynrubin_decompress
                0x00646008                rubin_do_decompress
 .text          0x00646158       0x18 fs/jffs2/libjffs2.a(compr_zlib.o)
                0x00646158                zlib_decompress
 .text          0x00646170      0x954 fs/jffs2/libjffs2.a(mini_inflate.o)
                0x00646528                decompress_block
                0x006461a0                pull_bits
                0x006461fc                pull_bit
                0x00646170                cramfs_memset
 .text          0x00646ac4      0xe60 fs/ext2/libext2fs.a(ext2fs.o)
                0x00646d28                ext2fs_read_file
                0x00646c74                ext2fs_close
                0x00646b98                ext2fs_mount
                0x006478a0                ext2fs_ls
                0x00647768                ext2fs_find_file
                0x00647800                ext2fs_open
                0x00646c54                ext2fs_free_node
                0x00647230                ext2fs_read
                0x006474c0                ext2fs_find_file1
 .text          0x00647924      0x1dc fs/ext2/libext2fs.a(dev.o)
                0x00647aac                ext2fs_set_blk_dev
                0x00647924                ext2fs_devread
 .text          0x00647b00      0x2b0 rtc/librtc.a(date.o)
                0x00647b00                GregorianDay
                0x00647d14                mktime
                0x00647bfc                to_tm
 .text          0x00647db0      0xb60 drivers/libdrivers.a(ahci.o)
                0x00648594                scsi_exec
                0x00647dc0                scsi_print_error
                0x00647dbc                scsi_bus_reset
                0x00647dc4                scsi_low_level_init
 .text          0x00648910      0x28c /opt/devel/proto/marvell/build-eabi/kernel-toolchain/bin/../lib/gcc/arm-none-linux-gnueabi/4.2.1/libgcc.a(_udivsi3.o)
                0x00648910                __udivsi3
                0x00648910                __aeabi_uidiv
                0x00648b84                __aeabi_uidivmod
 .text          0x00648b9c      0x2bc /opt/devel/proto/marvell/build-eabi/kernel-toolchain/bin/../lib/gcc/arm-none-linux-gnueabi/4.2.1/libgcc.a(_divsi3.o)
                0x00648b9c                __aeabi_idiv
                0x00648b9c                __divsi3
                0x00648e40                __aeabi_idivmod
 .text          0x00648e58       0x1c /opt/devel/proto/marvell/build-eabi/kernel-toolchain/bin/../lib/gcc/arm-none-linux-gnueabi/4.2.1/libgcc.a(_ashrdi3.o)
                0x00648e58                __ashrdi3
                0x00648e58                __aeabi_lasr
 .text          0x00648e74       0x1c /opt/devel/proto/marvell/build-eabi/kernel-toolchain/bin/../lib/gcc/arm-none-linux-gnueabi/4.2.1/libgcc.a(_ashldi3.o)
                0x00648e74                __ashldi3
                0x00648e74                __aeabi_llsl
 .text          0x00648e90       0x1c /opt/devel/proto/marvell/build-eabi/kernel-toolchain/bin/../lib/gcc/arm-none-linux-gnueabi/4.2.1/libgcc.a(_aeabi_uldivmod.o)
                0x00648e90                __aeabi_uldivmod
 .text          0x00648eac       0x10 /opt/devel/proto/marvell/build-eabi/kernel-toolchain/bin/../lib/gcc/arm-none-linux-gnueabi/4.2.1/libgcc.a(_dvmd_lnx.o)
                0x00648eac                __div0
 .text          0x00648ebc       0x98 /opt/devel/proto/marvell/build-eabi/kernel-toolchain/bin/../lib/gcc/arm-none-linux-gnueabi/4.2.1/libgcc.a(bpabi.o)
                0x00648ebc                __gnu_uldivmod_helper
                0x00648f08                __gnu_ldivmod_helper
 .text          0x00648f54      0x644 /opt/devel/proto/marvell/build-eabi/kernel-toolchain/bin/../lib/gcc/arm-none-linux-gnueabi/4.2.1/libgcc.a(_divdi3.o)
                0x00648f54                __divdi3
 .text          0x00649598      0x5ec /opt/devel/proto/marvell/build-eabi/kernel-toolchain/bin/../lib/gcc/arm-none-linux-gnueabi/4.2.1/libgcc.a(_udivdi3.o)
                0x00649598                __udivdi3
 .text          0x00649b84        0x0 /opt/devel/proto/marvell/build-eabi/kernel-toolchain/bin/../lib/gcc/arm-none-linux-gnueabi/4.2.1/libgcc.a(_clz.o)

.glue_7         0x00649b84        0x0
 .glue_7        0x00649b84        0x0 cpu/arm926ejs/start.o
 .glue_7        0x00649b84        0x0 board/mv_feroceon/USP/jump.o
 .glue_7        0x00649b84        0x0 board/mv_feroceon/config_kw/libconfig_kw.a(platform.o)
 .glue_7        0x00649b84        0x0 board/mv_feroceon/config_kw/libconfig_kw.a(mvTwsiEeprom.o)
 .glue_7        0x00649b84        0x0 board/mv_feroceon/config_kw/libconfig_kw.a(mv_cmd.o)
 .glue_7        0x00649b84        0x0 board/mv_feroceon/config_kw/libconfig_kw.a(mv_main.o)
 .glue_7        0x00649b84        0x0 board/mv_feroceon/config_kw/libconfig_kw.a(mvCtrlEnvLib.o)
 .glue_7        0x00649b84        0x0 board/mv_feroceon/config_kw/libconfig_kw.a(mvAhbToMbus.o)
 .glue_7        0x00649b84        0x0 board/mv_feroceon/config_kw/libconfig_kw.a(mvCpuIf.o)
 .glue_7        0x00649b84        0x0 board/mv_feroceon/config_kw/libconfig_kw.a(mvSysXor.o)
 .glue_7        0x00649b84        0x0 board/mv_feroceon/config_kw/libconfig_kw.a(mvSysDram.o)
 .glue_7        0x00649b84        0x0 board/mv_feroceon/config_kw/libconfig_kw.a(mvSysGbe.o)
 .glue_7        0x00649b84        0x0 board/mv_feroceon/config_kw/libconfig_kw.a(mvSysTs.o)
 .glue_7        0x00649b84        0x0 board/mv_feroceon/config_kw/libconfig_kw.a(mvSysPex.o)
 .glue_7        0x00649b84        0x0 board/mv_feroceon/config_kw/libconfig_kw.a(mvSysUsb.o)
 .glue_7        0x00649b84        0x0 board/mv_feroceon/config_kw/libconfig_kw.a(mvCpu.o)
 .glue_7        0x00649b84        0x0 board/mv_feroceon/config_kw/libconfig_kw.a(mvBoardEnvLib.o)
 .glue_7        0x00649b84        0x0 board/mv_feroceon/config_kw/libconfig_kw.a(mvBoardEnvSpec.o)
 .glue_7        0x00649b84        0x0 board/mv_feroceon/config_kw/libconfig_kw.a(mv_flash.o)
 .glue_7        0x00649b84        0x0 board/mv_feroceon/config_kw/libconfig_kw.a(mv_pageTable.o)
 .glue_7        0x00649b84        0x0 board/mv_feroceon/config_kw/libconfig_kw.a(mv_mon_init.o)
 .glue_7        0x00649b84        0x0 board/mv_feroceon/config_kw/libconfig_kw.a(mv_pci.o)
 .glue_7        0x00649b84        0x0 board/mv_feroceon/config_kw/libconfig_kw.a(mv_ide.o)
 .glue_7        0x00649b84        0x0 board/mv_feroceon/config_kw/libconfig_kw.a(mv_protectionUnit.o)
 .glue_7        0x00649b84        0x0 board/mv_feroceon/config_kw/libconfig_kw.a(mv_ext2_boot.o)
 .glue_7        0x00649b84        0x0 board/mv_feroceon/config_kw/libconfig_kw.a(mvCommon.o)
 .glue_7        0x00649b84        0x0 board/mv_feroceon/config_kw/libconfig_kw.a(mvOs.o)
 .glue_7        0x00649b84        0x0 board/mv_feroceon/config_kw/libconfig_kw.a(mvFlashCom.o)
 .glue_7        0x00649b84        0x0 board/mv_feroceon/config_kw/libconfig_kw.a(mvSata.o)
 .glue_7        0x00649b84        0x0 board/mv_feroceon/config_kw/libconfig_kw.a(mvStorageDev.o)
 .glue_7        0x00649b84        0x0 board/mv_feroceon/config_kw/libconfig_kw.a(mvSFlash.o)
 .glue_7        0x00649b84        0x0 board/mv_feroceon/config_kw/libconfig_kw.a(mvEthPhy.o)
 .glue_7        0x00649b84        0x0 board/mv_feroceon/config_kw/libconfig_kw.a(mvRtc.o)
 .glue_7        0x00649b84        0x0 board/mv_feroceon/config_kw/libconfig_kw.a(mvTwsi.o)
 .glue_7        0x00649b84        0x0 board/mv_feroceon/config_kw/libconfig_kw.a(mvGpp.o)
 .glue_7        0x00649b84        0x0 board/mv_feroceon/config_kw/libconfig_kw.a(mvSpi.o)
 .glue_7        0x00649b84        0x0 board/mv_feroceon/config_kw/libconfig_kw.a(mvSpiCmnd.o)
 .glue_7        0x00649b84        0x0 board/mv_feroceon/config_kw/libconfig_kw.a(mvUsb.o)
 .glue_7        0x00649b84        0x0 board/mv_feroceon/config_kw/libconfig_kw.a(mvXor.o)
 .glue_7        0x00649b84        0x0 board/mv_feroceon/config_kw/libconfig_kw.a(mvEth.o)
 .glue_7        0x00649b84        0x0 board/mv_feroceon/config_kw/libconfig_kw.a(mvPciIf.o)
 .glue_7        0x00649b84        0x0 board/mv_feroceon/config_kw/libconfig_kw.a(mvPex.o)
 .glue_7        0x00649b84        0x0 board/mv_feroceon/config_kw/libconfig_kw.a(mvTsu.o)
 .glue_7        0x00649b84        0x0 board/mv_feroceon/config_kw/libconfig_kw.a(mvMD5.o)
 .glue_7        0x00649b84        0x0 board/mv_feroceon/config_kw/libconfig_kw.a(mvSwitch.o)
 .glue_7        0x00649b84        0x0 board/mv_feroceon/config_kw/libconfig_kw.a(mvCtrlEnvAddrDec.o)
 .glue_7        0x00649b84        0x0 board/mv_feroceon/config_kw/libconfig_kw.a(mvSysSata.o)
 .glue_7        0x00649b84        0x0 board/mv_feroceon/config_kw/libconfig_kw.a(mvPciUtils.o)
 .glue_7        0x00649b84        0x0 board/mv_feroceon/config_kw/libconfig_kw.a(mvOsSata.o)
 .glue_7        0x00649b84        0x0 cpu/arm926ejs/libarm926ejs.a(interrupts.o)
 .glue_7        0x00649b84        0x0 lib_arm/libarm.a(board.o)
 .glue_7        0x00649b84        0x0 lib_arm/libarm.a(cache.o)
 .glue_7        0x00649b84        0x0 net/libnet.a(net.o)
 .glue_7        0x00649b84        0x0 net/libnet.a(tftp.o)
 .glue_7        0x00649b84        0x0 net/libnet.a(bootp.o)
 .glue_7        0x00649b84        0x0 net/libnet.a(rarp.o)
 .glue_7        0x00649b84        0x0 net/libnet.a(eth.o)
 .glue_7        0x00649b84        0x0 net/libnet.a(rcvr.o)
 .glue_7        0x00649b84        0x0 disk/libdisk.a(part.o)
 .glue_7        0x00649b84        0x0 disk/libdisk.a(part_dos.o)
 .glue_7        0x00649b84        0x0 disk/libdisk.a(part_efi.o)
 .glue_7        0x00649b84        0x0 drivers/libdrivers.a(cfi_flash.o)
 .glue_7        0x00649b84        0x0 drivers/libdrivers.a(pci.o)
 .glue_7        0x00649b84        0x0 drivers/libdrivers.a(pci_auto.o)
 .glue_7        0x00649b84        0x0 drivers/nand/libnand.a(nand.o)
 .glue_7        0x00649b84        0x0 drivers/nand/libnand.a(nand_base.o)
 .glue_7        0x00649b84        0x0 drivers/nand/libnand.a(nand_ids.o)
 .glue_7        0x00649b84        0x0 drivers/nand/libnand.a(nand_ecc.o)
 .glue_7        0x00649b84        0x0 drivers/nand/libnand.a(nand_bbt.o)
 .glue_7        0x00649b84        0x0 drivers/nand/libnand.a(nand_util.o)
 .glue_7        0x00649b84        0x0 common/libcommon.a(main.o)
 .glue_7        0x00649b84        0x0 common/libcommon.a(cmd_boot.o)
 .glue_7        0x00649b84        0x0 common/libcommon.a(cmd_bootm.o)
 .glue_7        0x00649b84        0x0 common/libcommon.a(cmd_date.o)
 .glue_7        0x00649b84        0x0 common/libcommon.a(cmd_eeprom.o)
 .glue_7        0x00649b84        0x0 common/libcommon.a(cmd_ext2.o)
 .glue_7        0x00649b84        0x0 common/libcommon.a(cmd_flash.o)
 .glue_7        0x00649b84        0x0 common/libcommon.a(cmd_i2c.o)
 .glue_7        0x00649b84        0x0 common/libcommon.a(cmd_jffs2.o)
 .glue_7        0x00649b84        0x0 common/libcommon.a(cmd_mem.o)
 .glue_7        0x00649b84        0x0 common/libcommon.a(cmd_nand.o)
 .glue_7        0x00649b84        0x0 common/libcommon.a(cmd_net.o)
 .glue_7        0x00649b84        0x0 common/libcommon.a(cmd_nvedit.o)
 .glue_7        0x00649b84        0x0 common/libcommon.a(cmd_pci.o)
 .glue_7        0x00649b84        0x0 common/libcommon.a(cmd_scsi.o)
 .glue_7        0x00649b84        0x0 common/libcommon.a(command.o)
 .glue_7        0x00649b84        0x0 common/libcommon.a(console.o)
 .glue_7        0x00649b84        0x0 common/libcommon.a(devices.o)
 .glue_7        0x00649b84        0x0 common/libcommon.a(dlmalloc.o)
 .glue_7        0x00649b84        0x0 common/libcommon.a(env_common.o)
 .glue_7        0x00649b84        0x0 common/libcommon.a(env_nand.o)
 .glue_7        0x00649b84        0x0 common/libcommon.a(exports.o)
 .glue_7        0x00649b84        0x0 common/libcommon.a(flash.o)
 .glue_7        0x00649b84        0x0 common/libcommon.a(lists.o)
 .glue_7        0x00649b84        0x0 lib_generic/libgeneric.a(crc32.o)
 .glue_7        0x00649b84        0x0 lib_generic/libgeneric.a(ctype.o)
 .glue_7        0x00649b84        0x0 lib_generic/libgeneric.a(display_options.o)
 .glue_7        0x00649b84        0x0 lib_generic/libgeneric.a(string.o)
 .glue_7        0x00649b84        0x0 lib_generic/libgeneric.a(vsprintf.o)
 .glue_7        0x00649b84        0x0 lib_generic/libgeneric.a(zlib.o)
 .glue_7        0x00649b84        0x0 board/mv_feroceon/config_kw/libconfig_kw.a(mvCntmr.o)
 .glue_7        0x00649b84        0x0 board/mv_feroceon/config_kw/libconfig_kw.a(mv_dram.o)
 .glue_7        0x00649b84        0x0 board/mv_feroceon/config_kw/libconfig_kw.a(mv_serial.o)
 .glue_7        0x00649b84        0x0 board/mv_feroceon/config_kw/libconfig_kw.a(mv_rtc.o)
 .glue_7        0x00649b84        0x0 board/mv_feroceon/config_kw/libconfig_kw.a(mv_nand.o)
 .glue_7        0x00649b84        0x0 board/mv_feroceon/config_kw/libconfig_kw.a(mv_egiga.o)
 .glue_7        0x00649b84        0x0 board/mv_feroceon/config_kw/libconfig_kw.a(mv_i2c.o)
 .glue_7        0x00649b84        0x0 board/mv_feroceon/config_kw/libconfig_kw.a(mvDramIf.o)
 .glue_7        0x00649b84        0x0 board/mv_feroceon/config_kw/libconfig_kw.a(mvUart.o)
 .glue_7        0x00649b84        0x0 board/mv_feroceon/config_kw/libconfig_kw.a(mvSpd.o)
 .glue_7        0x00649b84        0x0 cpu/arm926ejs/libarm926ejs.a(cpu.o)
 .glue_7        0x00649b84        0x0 lib_arm/libarm.a(armlinux.o)
 .glue_7        0x00649b84        0x0 fs/cramfs/libcramfs.a(cramfs.o)
 .glue_7        0x00649b84        0x0 fs/cramfs/libcramfs.a(uncompress.o)
 .glue_7        0x00649b84        0x0 fs/jffs2/libjffs2.a(jffs2_1pass.o)
 .glue_7        0x00649b84        0x0 fs/jffs2/libjffs2.a(compr_rtime.o)
 .glue_7        0x00649b84        0x0 fs/jffs2/libjffs2.a(compr_rubin.o)
 .glue_7        0x00649b84        0x0 fs/jffs2/libjffs2.a(compr_zlib.o)
 .glue_7        0x00649b84        0x0 fs/jffs2/libjffs2.a(mini_inflate.o)
 .glue_7        0x00649b84        0x0 fs/ext2/libext2fs.a(ext2fs.o)
 .glue_7        0x00649b84        0x0 fs/ext2/libext2fs.a(dev.o)
 .glue_7        0x00649b84        0x0 rtc/librtc.a(date.o)
 .glue_7        0x00649b84        0x0 drivers/libdrivers.a(ahci.o)
 .glue_7        0x00649b84        0x0 /opt/devel/proto/marvell/build-eabi/kernel-toolchain/bin/../lib/gcc/arm-none-linux-gnueabi/4.2.1/libgcc.a(_udivsi3.o)
 .glue_7        0x00649b84        0x0 /opt/devel/proto/marvell/build-eabi/kernel-toolchain/bin/../lib/gcc/arm-none-linux-gnueabi/4.2.1/libgcc.a(_divsi3.o)
 .glue_7        0x00649b84        0x0 /opt/devel/proto/marvell/build-eabi/kernel-toolchain/bin/../lib/gcc/arm-none-linux-gnueabi/4.2.1/libgcc.a(_ashrdi3.o)
 .glue_7        0x00649b84        0x0 /opt/devel/proto/marvell/build-eabi/kernel-toolchain/bin/../lib/gcc/arm-none-linux-gnueabi/4.2.1/libgcc.a(_ashldi3.o)
 .glue_7        0x00649b84        0x0 /opt/devel/proto/marvell/build-eabi/kernel-toolchain/bin/../lib/gcc/arm-none-linux-gnueabi/4.2.1/libgcc.a(_aeabi_uldivmod.o)
 .glue_7        0x00649b84        0x0 /opt/devel/proto/marvell/build-eabi/kernel-toolchain/bin/../lib/gcc/arm-none-linux-gnueabi/4.2.1/libgcc.a(_dvmd_lnx.o)
 .glue_7        0x00649b84        0x0 /opt/devel/proto/marvell/build-eabi/kernel-toolchain/bin/../lib/gcc/arm-none-linux-gnueabi/4.2.1/libgcc.a(bpabi.o)
 .glue_7        0x00649b84        0x0 /opt/devel/proto/marvell/build-eabi/kernel-toolchain/bin/../lib/gcc/arm-none-linux-gnueabi/4.2.1/libgcc.a(_divdi3.o)
 .glue_7        0x00649b84        0x0 /opt/devel/proto/marvell/build-eabi/kernel-toolchain/bin/../lib/gcc/arm-none-linux-gnueabi/4.2.1/libgcc.a(_udivdi3.o)
 .glue_7        0x00649b84        0x0 /opt/devel/proto/marvell/build-eabi/kernel-toolchain/bin/../lib/gcc/arm-none-linux-gnueabi/4.2.1/libgcc.a(_clz.o)

.glue_7t        0x00649b84        0x0
 .glue_7t       0x00649b84        0x0 cpu/arm926ejs/start.o
 .glue_7t       0x00649b84        0x0 board/mv_feroceon/USP/jump.o
 .glue_7t       0x00649b84        0x0 board/mv_feroceon/config_kw/libconfig_kw.a(platform.o)
 .glue_7t       0x00649b84        0x0 board/mv_feroceon/config_kw/libconfig_kw.a(mvTwsiEeprom.o)
 .glue_7t       0x00649b84        0x0 board/mv_feroceon/config_kw/libconfig_kw.a(mv_cmd.o)
 .glue_7t       0x00649b84        0x0 board/mv_feroceon/config_kw/libconfig_kw.a(mv_main.o)
 .glue_7t       0x00649b84        0x0 board/mv_feroceon/config_kw/libconfig_kw.a(mvCtrlEnvLib.o)
 .glue_7t       0x00649b84        0x0 board/mv_feroceon/config_kw/libconfig_kw.a(mvAhbToMbus.o)
 .glue_7t       0x00649b84        0x0 board/mv_feroceon/config_kw/libconfig_kw.a(mvCpuIf.o)
 .glue_7t       0x00649b84        0x0 board/mv_feroceon/config_kw/libconfig_kw.a(mvSysXor.o)
 .glue_7t       0x00649b84        0x0 board/mv_feroceon/config_kw/libconfig_kw.a(mvSysDram.o)
 .glue_7t       0x00649b84        0x0 board/mv_feroceon/config_kw/libconfig_kw.a(mvSysGbe.o)
 .glue_7t       0x00649b84        0x0 board/mv_feroceon/config_kw/libconfig_kw.a(mvSysTs.o)
 .glue_7t       0x00649b84        0x0 board/mv_feroceon/config_kw/libconfig_kw.a(mvSysPex.o)
 .glue_7t       0x00649b84        0x0 board/mv_feroceon/config_kw/libconfig_kw.a(mvSysUsb.o)
 .glue_7t       0x00649b84        0x0 board/mv_feroceon/config_kw/libconfig_kw.a(mvCpu.o)
 .glue_7t       0x00649b84        0x0 board/mv_feroceon/config_kw/libconfig_kw.a(mvBoardEnvLib.o)
 .glue_7t       0x00649b84        0x0 board/mv_feroceon/config_kw/libconfig_kw.a(mvBoardEnvSpec.o)
 .glue_7t       0x00649b84        0x0 board/mv_feroceon/config_kw/libconfig_kw.a(mv_flash.o)
 .glue_7t       0x00649b84        0x0 board/mv_feroceon/config_kw/libconfig_kw.a(mv_pageTable.o)
 .glue_7t       0x00649b84        0x0 board/mv_feroceon/config_kw/libconfig_kw.a(mv_mon_init.o)
 .glue_7t       0x00649b84        0x0 board/mv_feroceon/config_kw/libconfig_kw.a(mv_pci.o)
 .glue_7t       0x00649b84        0x0 board/mv_feroceon/config_kw/libconfig_kw.a(mv_ide.o)
 .glue_7t       0x00649b84        0x0 board/mv_feroceon/config_kw/libconfig_kw.a(mv_protectionUnit.o)
 .glue_7t       0x00649b84        0x0 board/mv_feroceon/config_kw/libconfig_kw.a(mv_ext2_boot.o)
 .glue_7t       0x00649b84        0x0 board/mv_feroceon/config_kw/libconfig_kw.a(mvCommon.o)
 .glue_7t       0x00649b84        0x0 board/mv_feroceon/config_kw/libconfig_kw.a(mvOs.o)
 .glue_7t       0x00649b84        0x0 board/mv_feroceon/config_kw/libconfig_kw.a(mvFlashCom.o)
 .glue_7t       0x00649b84        0x0 board/mv_feroceon/config_kw/libconfig_kw.a(mvSata.o)
 .glue_7t       0x00649b84        0x0 board/mv_feroceon/config_kw/libconfig_kw.a(mvStorageDev.o)
 .glue_7t       0x00649b84        0x0 board/mv_feroceon/config_kw/libconfig_kw.a(mvSFlash.o)
 .glue_7t       0x00649b84        0x0 board/mv_feroceon/config_kw/libconfig_kw.a(mvEthPhy.o)
 .glue_7t       0x00649b84        0x0 board/mv_feroceon/config_kw/libconfig_kw.a(mvRtc.o)
 .glue_7t       0x00649b84        0x0 board/mv_feroceon/config_kw/libconfig_kw.a(mvTwsi.o)
 .glue_7t       0x00649b84        0x0 board/mv_feroceon/config_kw/libconfig_kw.a(mvGpp.o)
 .glue_7t       0x00649b84        0x0 board/mv_feroceon/config_kw/libconfig_kw.a(mvSpi.o)
 .glue_7t       0x00649b84        0x0 board/mv_feroceon/config_kw/libconfig_kw.a(mvSpiCmnd.o)
 .glue_7t       0x00649b84        0x0 board/mv_feroceon/config_kw/libconfig_kw.a(mvUsb.o)
 .glue_7t       0x00649b84        0x0 board/mv_feroceon/config_kw/libconfig_kw.a(mvXor.o)
 .glue_7t       0x00649b84        0x0 board/mv_feroceon/config_kw/libconfig_kw.a(mvEth.o)
 .glue_7t       0x00649b84        0x0 board/mv_feroceon/config_kw/libconfig_kw.a(mvPciIf.o)
 .glue_7t       0x00649b84        0x0 board/mv_feroceon/config_kw/libconfig_kw.a(mvPex.o)
 .glue_7t       0x00649b84        0x0 board/mv_feroceon/config_kw/libconfig_kw.a(mvTsu.o)
 .glue_7t       0x00649b84        0x0 board/mv_feroceon/config_kw/libconfig_kw.a(mvMD5.o)
 .glue_7t       0x00649b84        0x0 board/mv_feroceon/config_kw/libconfig_kw.a(mvSwitch.o)
 .glue_7t       0x00649b84        0x0 board/mv_feroceon/config_kw/libconfig_kw.a(mvCtrlEnvAddrDec.o)
 .glue_7t       0x00649b84        0x0 board/mv_feroceon/config_kw/libconfig_kw.a(mvSysSata.o)
 .glue_7t       0x00649b84        0x0 board/mv_feroceon/config_kw/libconfig_kw.a(mvPciUtils.o)
 .glue_7t       0x00649b84        0x0 board/mv_feroceon/config_kw/libconfig_kw.a(mvOsSata.o)
 .glue_7t       0x00649b84        0x0 cpu/arm926ejs/libarm926ejs.a(interrupts.o)
 .glue_7t       0x00649b84        0x0 lib_arm/libarm.a(board.o)
 .glue_7t       0x00649b84        0x0 lib_arm/libarm.a(cache.o)
 .glue_7t       0x00649b84        0x0 net/libnet.a(net.o)
 .glue_7t       0x00649b84        0x0 net/libnet.a(tftp.o)
 .glue_7t       0x00649b84        0x0 net/libnet.a(bootp.o)
 .glue_7t       0x00649b84        0x0 net/libnet.a(rarp.o)
 .glue_7t       0x00649b84        0x0 net/libnet.a(eth.o)
 .glue_7t       0x00649b84        0x0 net/libnet.a(rcvr.o)
 .glue_7t       0x00649b84        0x0 disk/libdisk.a(part.o)
 .glue_7t       0x00649b84        0x0 disk/libdisk.a(part_dos.o)
 .glue_7t       0x00649b84        0x0 disk/libdisk.a(part_efi.o)
 .glue_7t       0x00649b84        0x0 drivers/libdrivers.a(cfi_flash.o)
 .glue_7t       0x00649b84        0x0 drivers/libdrivers.a(pci.o)
 .glue_7t       0x00649b84        0x0 drivers/libdrivers.a(pci_auto.o)
 .glue_7t       0x00649b84        0x0 drivers/nand/libnand.a(nand.o)
 .glue_7t       0x00649b84        0x0 drivers/nand/libnand.a(nand_base.o)
 .glue_7t       0x00649b84        0x0 drivers/nand/libnand.a(nand_ids.o)
 .glue_7t       0x00649b84        0x0 drivers/nand/libnand.a(nand_ecc.o)
 .glue_7t       0x00649b84        0x0 drivers/nand/libnand.a(nand_bbt.o)
 .glue_7t       0x00649b84        0x0 drivers/nand/libnand.a(nand_util.o)
 .glue_7t       0x00649b84        0x0 common/libcommon.a(main.o)
 .glue_7t       0x00649b84        0x0 common/libcommon.a(cmd_boot.o)
 .glue_7t       0x00649b84        0x0 common/libcommon.a(cmd_bootm.o)
 .glue_7t       0x00649b84        0x0 common/libcommon.a(cmd_date.o)
 .glue_7t       0x00649b84        0x0 common/libcommon.a(cmd_eeprom.o)
 .glue_7t       0x00649b84        0x0 common/libcommon.a(cmd_ext2.o)
 .glue_7t       0x00649b84        0x0 common/libcommon.a(cmd_flash.o)
 .glue_7t       0x00649b84        0x0 common/libcommon.a(cmd_i2c.o)
 .glue_7t       0x00649b84        0x0 common/libcommon.a(cmd_jffs2.o)
 .glue_7t       0x00649b84        0x0 common/libcommon.a(cmd_mem.o)
 .glue_7t       0x00649b84        0x0 common/libcommon.a(cmd_nand.o)
 .glue_7t       0x00649b84        0x0 common/libcommon.a(cmd_net.o)
 .glue_7t       0x00649b84        0x0 common/libcommon.a(cmd_nvedit.o)
 .glue_7t       0x00649b84        0x0 common/libcommon.a(cmd_pci.o)
 .glue_7t       0x00649b84        0x0 common/libcommon.a(cmd_scsi.o)
 .glue_7t       0x00649b84        0x0 common/libcommon.a(command.o)
 .glue_7t       0x00649b84        0x0 common/libcommon.a(console.o)
 .glue_7t       0x00649b84        0x0 common/libcommon.a(devices.o)
 .glue_7t       0x00649b84        0x0 common/libcommon.a(dlmalloc.o)
 .glue_7t       0x00649b84        0x0 common/libcommon.a(env_common.o)
 .glue_7t       0x00649b84        0x0 common/libcommon.a(env_nand.o)
 .glue_7t       0x00649b84        0x0 common/libcommon.a(exports.o)
 .glue_7t       0x00649b84        0x0 common/libcommon.a(flash.o)
 .glue_7t       0x00649b84        0x0 common/libcommon.a(lists.o)
 .glue_7t       0x00649b84        0x0 lib_generic/libgeneric.a(crc32.o)
 .glue_7t       0x00649b84        0x0 lib_generic/libgeneric.a(ctype.o)
 .glue_7t       0x00649b84        0x0 lib_generic/libgeneric.a(display_options.o)
 .glue_7t       0x00649b84        0x0 lib_generic/libgeneric.a(string.o)
 .glue_7t       0x00649b84        0x0 lib_generic/libgeneric.a(vsprintf.o)
 .glue_7t       0x00649b84        0x0 lib_generic/libgeneric.a(zlib.o)
 .glue_7t       0x00649b84        0x0 board/mv_feroceon/config_kw/libconfig_kw.a(mvCntmr.o)
 .glue_7t       0x00649b84        0x0 board/mv_feroceon/config_kw/libconfig_kw.a(mv_dram.o)
 .glue_7t       0x00649b84        0x0 board/mv_feroceon/config_kw/libconfig_kw.a(mv_serial.o)
 .glue_7t       0x00649b84        0x0 board/mv_feroceon/config_kw/libconfig_kw.a(mv_rtc.o)
 .glue_7t       0x00649b84        0x0 board/mv_feroceon/config_kw/libconfig_kw.a(mv_nand.o)
 .glue_7t       0x00649b84        0x0 board/mv_feroceon/config_kw/libconfig_kw.a(mv_egiga.o)
 .glue_7t       0x00649b84        0x0 board/mv_feroceon/config_kw/libconfig_kw.a(mv_i2c.o)
 .glue_7t       0x00649b84        0x0 board/mv_feroceon/config_kw/libconfig_kw.a(mvDramIf.o)
 .glue_7t       0x00649b84        0x0 board/mv_feroceon/config_kw/libconfig_kw.a(mvUart.o)
 .glue_7t       0x00649b84        0x0 board/mv_feroceon/config_kw/libconfig_kw.a(mvSpd.o)
 .glue_7t       0x00649b84        0x0 cpu/arm926ejs/libarm926ejs.a(cpu.o)
 .glue_7t       0x00649b84        0x0 lib_arm/libarm.a(armlinux.o)
 .glue_7t       0x00649b84        0x0 fs/cramfs/libcramfs.a(cramfs.o)
 .glue_7t       0x00649b84        0x0 fs/cramfs/libcramfs.a(uncompress.o)
 .glue_7t       0x00649b84        0x0 fs/jffs2/libjffs2.a(jffs2_1pass.o)
 .glue_7t       0x00649b84        0x0 fs/jffs2/libjffs2.a(compr_rtime.o)
 .glue_7t       0x00649b84        0x0 fs/jffs2/libjffs2.a(compr_rubin.o)
 .glue_7t       0x00649b84        0x0 fs/jffs2/libjffs2.a(compr_zlib.o)
 .glue_7t       0x00649b84        0x0 fs/jffs2/libjffs2.a(mini_inflate.o)
 .glue_7t       0x00649b84        0x0 fs/ext2/libext2fs.a(ext2fs.o)
 .glue_7t       0x00649b84        0x0 fs/ext2/libext2fs.a(dev.o)
 .glue_7t       0x00649b84        0x0 rtc/librtc.a(date.o)
 .glue_7t       0x00649b84        0x0 drivers/libdrivers.a(ahci.o)
 .glue_7t       0x00649b84        0x0 /opt/devel/proto/marvell/build-eabi/kernel-toolchain/bin/../lib/gcc/arm-none-linux-gnueabi/4.2.1/libgcc.a(_udivsi3.o)
 .glue_7t       0x00649b84        0x0 /opt/devel/proto/marvell/build-eabi/kernel-toolchain/bin/../lib/gcc/arm-none-linux-gnueabi/4.2.1/libgcc.a(_divsi3.o)
 .glue_7t       0x00649b84        0x0 /opt/devel/proto/marvell/build-eabi/kernel-toolchain/bin/../lib/gcc/arm-none-linux-gnueabi/4.2.1/libgcc.a(_ashrdi3.o)
 .glue_7t       0x00649b84        0x0 /opt/devel/proto/marvell/build-eabi/kernel-toolchain/bin/../lib/gcc/arm-none-linux-gnueabi/4.2.1/libgcc.a(_ashldi3.o)
 .glue_7t       0x00649b84        0x0 /opt/devel/proto/marvell/build-eabi/kernel-toolchain/bin/../lib/gcc/arm-none-linux-gnueabi/4.2.1/libgcc.a(_aeabi_uldivmod.o)
 .glue_7t       0x00649b84        0x0 /opt/devel/proto/marvell/build-eabi/kernel-toolchain/bin/../lib/gcc/arm-none-linux-gnueabi/4.2.1/libgcc.a(_dvmd_lnx.o)
 .glue_7t       0x00649b84        0x0 /opt/devel/proto/marvell/build-eabi/kernel-toolchain/bin/../lib/gcc/arm-none-linux-gnueabi/4.2.1/libgcc.a(bpabi.o)
 .glue_7t       0x00649b84        0x0 /opt/devel/proto/marvell/build-eabi/kernel-toolchain/bin/../lib/gcc/arm-none-linux-gnueabi/4.2.1/libgcc.a(_divdi3.o)
 .glue_7t       0x00649b84        0x0 /opt/devel/proto/marvell/build-eabi/kernel-toolchain/bin/../lib/gcc/arm-none-linux-gnueabi/4.2.1/libgcc.a(_udivdi3.o)
 .glue_7t       0x00649b84        0x0 /opt/devel/proto/marvell/build-eabi/kernel-toolchain/bin/../lib/gcc/arm-none-linux-gnueabi/4.2.1/libgcc.a(_clz.o)

.vfp11_veneer   0x00649b84        0x0
 .vfp11_veneer  0x00649b84        0x0 cpu/arm926ejs/start.o
 .vfp11_veneer  0x00649b84        0x0 board/mv_feroceon/USP/jump.o
 .vfp11_veneer  0x00649b84        0x0 board/mv_feroceon/config_kw/libconfig_kw.a(platform.o)
 .vfp11_veneer  0x00649b84        0x0 board/mv_feroceon/config_kw/libconfig_kw.a(mvTwsiEeprom.o)
 .vfp11_veneer  0x00649b84        0x0 board/mv_feroceon/config_kw/libconfig_kw.a(mv_cmd.o)
 .vfp11_veneer  0x00649b84        0x0 board/mv_feroceon/config_kw/libconfig_kw.a(mv_main.o)
 .vfp11_veneer  0x00649b84        0x0 board/mv_feroceon/config_kw/libconfig_kw.a(mvCtrlEnvLib.o)
 .vfp11_veneer  0x00649b84        0x0 board/mv_feroceon/config_kw/libconfig_kw.a(mvAhbToMbus.o)
 .vfp11_veneer  0x00649b84        0x0 board/mv_feroceon/config_kw/libconfig_kw.a(mvCpuIf.o)
 .vfp11_veneer  0x00649b84        0x0 board/mv_feroceon/config_kw/libconfig_kw.a(mvSysXor.o)
 .vfp11_veneer  0x00649b84        0x0 board/mv_feroceon/config_kw/libconfig_kw.a(mvSysDram.o)
 .vfp11_veneer  0x00649b84        0x0 board/mv_feroceon/config_kw/libconfig_kw.a(mvSysGbe.o)
 .vfp11_veneer  0x00649b84        0x0 board/mv_feroceon/config_kw/libconfig_kw.a(mvSysTs.o)
 .vfp11_veneer  0x00649b84        0x0 board/mv_feroceon/config_kw/libconfig_kw.a(mvSysPex.o)
 .vfp11_veneer  0x00649b84        0x0 board/mv_feroceon/config_kw/libconfig_kw.a(mvSysUsb.o)
 .vfp11_veneer  0x00649b84        0x0 board/mv_feroceon/config_kw/libconfig_kw.a(mvCpu.o)
 .vfp11_veneer  0x00649b84        0x0 board/mv_feroceon/config_kw/libconfig_kw.a(mvBoardEnvLib.o)
 .vfp11_veneer  0x00649b84        0x0 board/mv_feroceon/config_kw/libconfig_kw.a(mvBoardEnvSpec.o)
 .vfp11_veneer  0x00649b84        0x0 board/mv_feroceon/config_kw/libconfig_kw.a(mv_flash.o)
 .vfp11_veneer  0x00649b84        0x0 board/mv_feroceon/config_kw/libconfig_kw.a(mv_pageTable.o)
 .vfp11_veneer  0x00649b84        0x0 board/mv_feroceon/config_kw/libconfig_kw.a(mv_mon_init.o)
 .vfp11_veneer  0x00649b84        0x0 board/mv_feroceon/config_kw/libconfig_kw.a(mv_pci.o)
 .vfp11_veneer  0x00649b84        0x0 board/mv_feroceon/config_kw/libconfig_kw.a(mv_ide.o)
 .vfp11_veneer  0x00649b84        0x0 board/mv_feroceon/config_kw/libconfig_kw.a(mv_protectionUnit.o)
 .vfp11_veneer  0x00649b84        0x0 board/mv_feroceon/config_kw/libconfig_kw.a(mv_ext2_boot.o)
 .vfp11_veneer  0x00649b84        0x0 board/mv_feroceon/config_kw/libconfig_kw.a(mvCommon.o)
 .vfp11_veneer  0x00649b84        0x0 board/mv_feroceon/config_kw/libconfig_kw.a(mvOs.o)
 .vfp11_veneer  0x00649b84        0x0 board/mv_feroceon/config_kw/libconfig_kw.a(mvFlashCom.o)
 .vfp11_veneer  0x00649b84        0x0 board/mv_feroceon/config_kw/libconfig_kw.a(mvSata.o)
 .vfp11_veneer  0x00649b84        0x0 board/mv_feroceon/config_kw/libconfig_kw.a(mvStorageDev.o)
 .vfp11_veneer  0x00649b84        0x0 board/mv_feroceon/config_kw/libconfig_kw.a(mvSFlash.o)
 .vfp11_veneer  0x00649b84        0x0 board/mv_feroceon/config_kw/libconfig_kw.a(mvEthPhy.o)
 .vfp11_veneer  0x00649b84        0x0 board/mv_feroceon/config_kw/libconfig_kw.a(mvRtc.o)
 .vfp11_veneer  0x00649b84        0x0 board/mv_feroceon/config_kw/libconfig_kw.a(mvTwsi.o)
 .vfp11_veneer  0x00649b84        0x0 board/mv_feroceon/config_kw/libconfig_kw.a(mvGpp.o)
 .vfp11_veneer  0x00649b84        0x0 board/mv_feroceon/config_kw/libconfig_kw.a(mvSpi.o)
 .vfp11_veneer  0x00649b84        0x0 board/mv_feroceon/config_kw/libconfig_kw.a(mvSpiCmnd.o)
 .vfp11_veneer  0x00649b84        0x0 board/mv_feroceon/config_kw/libconfig_kw.a(mvUsb.o)
 .vfp11_veneer  0x00649b84        0x0 board/mv_feroceon/config_kw/libconfig_kw.a(mvXor.o)
 .vfp11_veneer  0x00649b84        0x0 board/mv_feroceon/config_kw/libconfig_kw.a(mvEth.o)
 .vfp11_veneer  0x00649b84        0x0 board/mv_feroceon/config_kw/libconfig_kw.a(mvPciIf.o)
 .vfp11_veneer  0x00649b84        0x0 board/mv_feroceon/config_kw/libconfig_kw.a(mvPex.o)
 .vfp11_veneer  0x00649b84        0x0 board/mv_feroceon/config_kw/libconfig_kw.a(mvTsu.o)
 .vfp11_veneer  0x00649b84        0x0 board/mv_feroceon/config_kw/libconfig_kw.a(mvMD5.o)
 .vfp11_veneer  0x00649b84        0x0 board/mv_feroceon/config_kw/libconfig_kw.a(mvSwitch.o)
 .vfp11_veneer  0x00649b84        0x0 board/mv_feroceon/config_kw/libconfig_kw.a(mvCtrlEnvAddrDec.o)
 .vfp11_veneer  0x00649b84        0x0 board/mv_feroceon/config_kw/libconfig_kw.a(mvSysSata.o)
 .vfp11_veneer  0x00649b84        0x0 board/mv_feroceon/config_kw/libconfig_kw.a(mvPciUtils.o)
 .vfp11_veneer  0x00649b84        0x0 board/mv_feroceon/config_kw/libconfig_kw.a(mvOsSata.o)
 .vfp11_veneer  0x00649b84        0x0 cpu/arm926ejs/libarm926ejs.a(interrupts.o)
 .vfp11_veneer  0x00649b84        0x0 lib_arm/libarm.a(board.o)
 .vfp11_veneer  0x00649b84        0x0 lib_arm/libarm.a(cache.o)
 .vfp11_veneer  0x00649b84        0x0 net/libnet.a(net.o)
 .vfp11_veneer  0x00649b84        0x0 net/libnet.a(tftp.o)
 .vfp11_veneer  0x00649b84        0x0 net/libnet.a(bootp.o)
 .vfp11_veneer  0x00649b84        0x0 net/libnet.a(rarp.o)
 .vfp11_veneer  0x00649b84        0x0 net/libnet.a(eth.o)
 .vfp11_veneer  0x00649b84        0x0 net/libnet.a(rcvr.o)
 .vfp11_veneer  0x00649b84        0x0 disk/libdisk.a(part.o)
 .vfp11_veneer  0x00649b84        0x0 disk/libdisk.a(part_dos.o)
 .vfp11_veneer  0x00649b84        0x0 disk/libdisk.a(part_efi.o)
 .vfp11_veneer  0x00649b84        0x0 drivers/libdrivers.a(cfi_flash.o)
 .vfp11_veneer  0x00649b84        0x0 drivers/libdrivers.a(pci.o)
 .vfp11_veneer  0x00649b84        0x0 drivers/libdrivers.a(pci_auto.o)
 .vfp11_veneer  0x00649b84        0x0 drivers/nand/libnand.a(nand.o)
 .vfp11_veneer  0x00649b84        0x0 drivers/nand/libnand.a(nand_base.o)
 .vfp11_veneer  0x00649b84        0x0 drivers/nand/libnand.a(nand_ids.o)
 .vfp11_veneer  0x00649b84        0x0 drivers/nand/libnand.a(nand_ecc.o)
 .vfp11_veneer  0x00649b84        0x0 drivers/nand/libnand.a(nand_bbt.o)
 .vfp11_veneer  0x00649b84        0x0 drivers/nand/libnand.a(nand_util.o)
 .vfp11_veneer  0x00649b84        0x0 common/libcommon.a(main.o)
 .vfp11_veneer  0x00649b84        0x0 common/libcommon.a(cmd_boot.o)
 .vfp11_veneer  0x00649b84        0x0 common/libcommon.a(cmd_bootm.o)
 .vfp11_veneer  0x00649b84        0x0 common/libcommon.a(cmd_date.o)
 .vfp11_veneer  0x00649b84        0x0 common/libcommon.a(cmd_eeprom.o)
 .vfp11_veneer  0x00649b84        0x0 common/libcommon.a(cmd_ext2.o)
 .vfp11_veneer  0x00649b84        0x0 common/libcommon.a(cmd_flash.o)
 .vfp11_veneer  0x00649b84        0x0 common/libcommon.a(cmd_i2c.o)
 .vfp11_veneer  0x00649b84        0x0 common/libcommon.a(cmd_jffs2.o)
 .vfp11_veneer  0x00649b84        0x0 common/libcommon.a(cmd_mem.o)
 .vfp11_veneer  0x00649b84        0x0 common/libcommon.a(cmd_nand.o)
 .vfp11_veneer  0x00649b84        0x0 common/libcommon.a(cmd_net.o)
 .vfp11_veneer  0x00649b84        0x0 common/libcommon.a(cmd_nvedit.o)
 .vfp11_veneer  0x00649b84        0x0 common/libcommon.a(cmd_pci.o)
 .vfp11_veneer  0x00649b84        0x0 common/libcommon.a(cmd_scsi.o)
 .vfp11_veneer  0x00649b84        0x0 common/libcommon.a(command.o)
 .vfp11_veneer  0x00649b84        0x0 common/libcommon.a(console.o)
 .vfp11_veneer  0x00649b84        0x0 common/libcommon.a(devices.o)
 .vfp11_veneer  0x00649b84        0x0 common/libcommon.a(dlmalloc.o)
 .vfp11_veneer  0x00649b84        0x0 common/libcommon.a(env_common.o)
 .vfp11_veneer  0x00649b84        0x0 common/libcommon.a(env_nand.o)
 .vfp11_veneer  0x00649b84        0x0 common/libcommon.a(exports.o)
 .vfp11_veneer  0x00649b84        0x0 common/libcommon.a(flash.o)
 .vfp11_veneer  0x00649b84        0x0 common/libcommon.a(lists.o)
 .vfp11_veneer  0x00649b84        0x0 lib_generic/libgeneric.a(crc32.o)
 .vfp11_veneer  0x00649b84        0x0 lib_generic/libgeneric.a(ctype.o)
 .vfp11_veneer  0x00649b84        0x0 lib_generic/libgeneric.a(display_options.o)
 .vfp11_veneer  0x00649b84        0x0 lib_generic/libgeneric.a(string.o)
 .vfp11_veneer  0x00649b84        0x0 lib_generic/libgeneric.a(vsprintf.o)
 .vfp11_veneer  0x00649b84        0x0 lib_generic/libgeneric.a(zlib.o)
 .vfp11_veneer  0x00649b84        0x0 board/mv_feroceon/config_kw/libconfig_kw.a(mvCntmr.o)
 .vfp11_veneer  0x00649b84        0x0 board/mv_feroceon/config_kw/libconfig_kw.a(mv_dram.o)
 .vfp11_veneer  0x00649b84        0x0 board/mv_feroceon/config_kw/libconfig_kw.a(mv_serial.o)
 .vfp11_veneer  0x00649b84        0x0 board/mv_feroceon/config_kw/libconfig_kw.a(mv_rtc.o)
 .vfp11_veneer  0x00649b84        0x0 board/mv_feroceon/config_kw/libconfig_kw.a(mv_nand.o)
 .vfp11_veneer  0x00649b84        0x0 board/mv_feroceon/config_kw/libconfig_kw.a(mv_egiga.o)
 .vfp11_veneer  0x00649b84        0x0 board/mv_feroceon/config_kw/libconfig_kw.a(mv_i2c.o)
 .vfp11_veneer  0x00649b84        0x0 board/mv_feroceon/config_kw/libconfig_kw.a(mvDramIf.o)
 .vfp11_veneer  0x00649b84        0x0 board/mv_feroceon/config_kw/libconfig_kw.a(mvUart.o)
 .vfp11_veneer  0x00649b84        0x0 board/mv_feroceon/config_kw/libconfig_kw.a(mvSpd.o)
 .vfp11_veneer  0x00649b84        0x0 cpu/arm926ejs/libarm926ejs.a(cpu.o)
 .vfp11_veneer  0x00649b84        0x0 lib_arm/libarm.a(armlinux.o)
 .vfp11_veneer  0x00649b84        0x0 fs/cramfs/libcramfs.a(cramfs.o)
 .vfp11_veneer  0x00649b84        0x0 fs/cramfs/libcramfs.a(uncompress.o)
 .vfp11_veneer  0x00649b84        0x0 fs/jffs2/libjffs2.a(jffs2_1pass.o)
 .vfp11_veneer  0x00649b84        0x0 fs/jffs2/libjffs2.a(compr_rtime.o)
 .vfp11_veneer  0x00649b84        0x0 fs/jffs2/libjffs2.a(compr_rubin.o)
 .vfp11_veneer  0x00649b84        0x0 fs/jffs2/libjffs2.a(compr_zlib.o)
 .vfp11_veneer  0x00649b84        0x0 fs/jffs2/libjffs2.a(mini_inflate.o)
 .vfp11_veneer  0x00649b84        0x0 fs/ext2/libext2fs.a(ext2fs.o)
 .vfp11_veneer  0x00649b84        0x0 fs/ext2/libext2fs.a(dev.o)
 .vfp11_veneer  0x00649b84        0x0 rtc/librtc.a(date.o)
 .vfp11_veneer  0x00649b84        0x0 drivers/libdrivers.a(ahci.o)
 .vfp11_veneer  0x00649b84        0x0 /opt/devel/proto/marvell/build-eabi/kernel-toolchain/bin/../lib/gcc/arm-none-linux-gnueabi/4.2.1/libgcc.a(_udivsi3.o)
 .vfp11_veneer  0x00649b84        0x0 /opt/devel/proto/marvell/build-eabi/kernel-toolchain/bin/../lib/gcc/arm-none-linux-gnueabi/4.2.1/libgcc.a(_divsi3.o)
 .vfp11_veneer  0x00649b84        0x0 /opt/devel/proto/marvell/build-eabi/kernel-toolchain/bin/../lib/gcc/arm-none-linux-gnueabi/4.2.1/libgcc.a(_ashrdi3.o)
 .vfp11_veneer  0x00649b84        0x0 /opt/devel/proto/marvell/build-eabi/kernel-toolchain/bin/../lib/gcc/arm-none-linux-gnueabi/4.2.1/libgcc.a(_ashldi3.o)
 .vfp11_veneer  0x00649b84        0x0 /opt/devel/proto/marvell/build-eabi/kernel-toolchain/bin/../lib/gcc/arm-none-linux-gnueabi/4.2.1/libgcc.a(_aeabi_uldivmod.o)
 .vfp11_veneer  0x00649b84        0x0 /opt/devel/proto/marvell/build-eabi/kernel-toolchain/bin/../lib/gcc/arm-none-linux-gnueabi/4.2.1/libgcc.a(_dvmd_lnx.o)
 .vfp11_veneer  0x00649b84        0x0 /opt/devel/proto/marvell/build-eabi/kernel-toolchain/bin/../lib/gcc/arm-none-linux-gnueabi/4.2.1/libgcc.a(bpabi.o)
 .vfp11_veneer  0x00649b84        0x0 /opt/devel/proto/marvell/build-eabi/kernel-toolchain/bin/../lib/gcc/arm-none-linux-gnueabi/4.2.1/libgcc.a(_divdi3.o)
 .vfp11_veneer  0x00649b84        0x0 /opt/devel/proto/marvell/build-eabi/kernel-toolchain/bin/../lib/gcc/arm-none-linux-gnueabi/4.2.1/libgcc.a(_udivdi3.o)
 .vfp11_veneer  0x00649b84        0x0 /opt/devel/proto/marvell/build-eabi/kernel-toolchain/bin/../lib/gcc/arm-none-linux-gnueabi/4.2.1/libgcc.a(_clz.o)

.dummy          0x00649b84       0x10
 .dummy         0x00649b84       0x10 board/mv_feroceon/USP/jump.o
                0x00649b94                . = ALIGN (0x4)

.rodata         0x00649b94      0xe09
 *(.rodata)
 .rodata        0x00649b94       0x30 board/mv_feroceon/config_kw/libconfig_kw.a(mv_main.o)
 .rodata        0x00649bc4       0xd0 board/mv_feroceon/config_kw/libconfig_kw.a(mvCtrlEnvLib.o)
 .rodata        0x00649c94      0x140 board/mv_feroceon/config_kw/libconfig_kw.a(mvCpu.o)
 .rodata        0x00649dd4      0x128 board/mv_feroceon/config_kw/libconfig_kw.a(mvBoardEnvLib.o)
 .rodata        0x00649efc        0xd board/mv_feroceon/config_kw/libconfig_kw.a(mv_flash.o)
 *fill*         0x00649f09        0x3 00
 .rodata        0x00649f0c       0x28 board/mv_feroceon/config_kw/libconfig_kw.a(mv_pci.o)
 .rodata        0x00649f34       0x13 board/mv_feroceon/config_kw/libconfig_kw.a(mv_ide.o)
 *fill*         0x00649f47        0x1 00
 .rodata        0x00649f48       0xf4 board/mv_feroceon/config_kw/libconfig_kw.a(mvSFlash.o)
 .rodata        0x0064a03c        0xe board/mv_feroceon/config_kw/libconfig_kw.a(mvSpi.o)
 *fill*         0x0064a04a        0x2 00
 .rodata        0x0064a04c       0x80 cpu/arm926ejs/libarm926ejs.a(interrupts.o)
 .rodata        0x0064a0cc       0x3d lib_arm/libarm.a(board.o)
                0x0064a0cc                version_string
 .rodata        0x0064a109        0x7 net/libnet.a(net.o)
 .rodata        0x0064a110        0x7 net/libnet.a(eth.o)
 .rodata        0x0064a117       0x57 disk/libdisk.a(part_efi.o)
 .rodata        0x0064a16e        0x5 drivers/nand/libnand.a(nand.o)
 .rodata        0x0064a173        0x2 drivers/nand/libnand.a(nand_base.o)
 .rodata        0x0064a175      0x100 drivers/nand/libnand.a(nand_ecc.o)
 .rodata        0x0064a275       0x14 common/libcommon.a(cmd_ext2.o)
 *fill*         0x0064a289        0x3 00
 .rodata        0x0064a28c       0x20 common/libcommon.a(cmd_nvedit.o)
 .rodata        0x0064a2ac        0xc common/libcommon.a(cmd_pci.o)
 .rodata        0x0064a2b8      0x400 lib_generic/libgeneric.a(crc32.o)
 .rodata        0x0064a6b8       0x90 lib_generic/libgeneric.a(zlib.o)
 .rodata        0x0064a748       0x22 board/mv_feroceon/config_kw/libconfig_kw.a(mv_egiga.o)
 *fill*         0x0064a76a        0x2 00
 .rodata        0x0064a76c       0x20 board/mv_feroceon/config_kw/libconfig_kw.a(mvDramIf.o)
 .rodata        0x0064a78c       0xc8 fs/jffs2/libjffs2.a(jffs2_1pass.o)
 .rodata        0x0064a854       0x13 fs/jffs2/libjffs2.a(mini_inflate.o)
 *fill*         0x0064a867        0x1 00
 .rodata        0x0064a868       0x30 rtc/librtc.a(date.o)
 .rodata        0x0064a898        0x5 drivers/libdrivers.a(ahci.o)
 .rodata        0x0064a89d      0x100 /opt/devel/proto/marvell/build-eabi/kernel-toolchain/bin/../lib/gcc/arm-none-linux-gnueabi/4.2.1/libgcc.a(_clz.o)
                0x0064a89d                __clz_tab

.rodata.str1.1  0x0064a99d     0xdb5a
 .rodata.str1.1
                0x0064a99d     0x1100 board/mv_feroceon/config_kw/libconfig_kw.a(mv_cmd.o)
                               0x113c (size before relaxing)
 .rodata.str1.1
                0x0064ba9d      0xeb0 board/mv_feroceon/config_kw/libconfig_kw.a(mv_main.o)
                                0xf02 (size before relaxing)
 .rodata.str1.1
                0x0064c94d       0xcd board/mv_feroceon/config_kw/libconfig_kw.a(mvCtrlEnvLib.o)
                                 0xd0 (size before relaxing)
 .rodata.str1.1
                0x0064ca1a       0x36 board/mv_feroceon/config_kw/libconfig_kw.a(mvAhbToMbus.o)
                                 0x52 (size before relaxing)
 .rodata.str1.1
                0x0064ca50       0x1c board/mv_feroceon/config_kw/libconfig_kw.a(mvCpuIf.o)
                                 0x47 (size before relaxing)
 .rodata.str1.1
                0x0064ca6c       0x16 board/mv_feroceon/config_kw/libconfig_kw.a(mvSysXor.o)
                                 0x30 (size before relaxing)
 .rodata.str1.1
                0x0064ca82        0x9 board/mv_feroceon/config_kw/libconfig_kw.a(mvSysGbe.o)
                                 0x37 (size before relaxing)
 .rodata.str1.1
                0x0064ca8b        0x6 board/mv_feroceon/config_kw/libconfig_kw.a(mvSysTs.o)
                                 0x34 (size before relaxing)
 .rodata.str1.1
                0x0064ca91       0x9c board/mv_feroceon/config_kw/libconfig_kw.a(mvSysPex.o)
                                 0xdb (size before relaxing)
 .rodata.str1.1
                0x0064cb2d       0x12 board/mv_feroceon/config_kw/libconfig_kw.a(mvSysUsb.o)
                                 0x3b (size before relaxing)
 .rodata.str1.1
                0x0064cb3f       0xfc board/mv_feroceon/config_kw/libconfig_kw.a(mvCpu.o)
                                0x100 (size before relaxing)
 .rodata.str1.1
                0x0064cc3b       0x10 board/mv_feroceon/config_kw/libconfig_kw.a(mvBoardEnvLib.o)
                                 0x13 (size before relaxing)
 .rodata.str1.1
                0x0064cc4b      0x624 board/mv_feroceon/config_kw/libconfig_kw.a(mv_flash.o)
                                0x653 (size before relaxing)
 .rodata.str1.1
                0x0064d26f      0x1f0 board/mv_feroceon/config_kw/libconfig_kw.a(mv_pageTable.o)
                                0x21c (size before relaxing)
 .rodata.str1.1
                0x0064d45f       0x13 board/mv_feroceon/config_kw/libconfig_kw.a(mv_mon_init.o)
                                 0x1e (size before relaxing)
 .rodata.str1.1
                0x0064d472      0x72f board/mv_feroceon/config_kw/libconfig_kw.a(mv_pci.o)
                                0x76c (size before relaxing)
 .rodata.str1.1
                0x0064dba1      0xc4b board/mv_feroceon/config_kw/libconfig_kw.a(mv_ide.o)
                                0xca4 (size before relaxing)
 .rodata.str1.1
                0x0064e7ec      0x122 board/mv_feroceon/config_kw/libconfig_kw.a(mv_protectionUnit.o)
                                0x14e (size before relaxing)
 .rodata.str1.1
                0x0064e90e      0x1b2 board/mv_feroceon/config_kw/libconfig_kw.a(mv_ext2_boot.o)
                                0x1e1 (size before relaxing)
 .rodata.str1.1
                0x0064eac0       0x29 board/mv_feroceon/config_kw/libconfig_kw.a(mvCommon.o)
                                 0x31 (size before relaxing)
 .rodata.str1.1
                0x0064eae9      0x34e board/mv_feroceon/config_kw/libconfig_kw.a(mvFlashCom.o)
                                0x388 (size before relaxing)
 .rodata.str1.1
                0x0064ee37       0x48 board/mv_feroceon/config_kw/libconfig_kw.a(mvSFlash.o)
 .rodata.str1.1
                0x0064ee7f       0xab board/mv_feroceon/config_kw/libconfig_kw.a(mvEthPhy.o)
 .rodata.str1.1
                0x0064ef2a      0x1c5 board/mv_feroceon/config_kw/libconfig_kw.a(mvTwsi.o)
 .rodata.str1.1
                0x0064f0ef        0xa board/mv_feroceon/config_kw/libconfig_kw.a(mvSysSata.o)
                                 0x38 (size before relaxing)
 .rodata.str1.1
                0x0064f0f9      0x1b9 board/mv_feroceon/config_kw/libconfig_kw.a(mvPciUtils.o)
 .rodata.str1.1
                0x0064f2b2      0x260 cpu/arm926ejs/libarm926ejs.a(interrupts.o)
                                0x27b (size before relaxing)
 .rodata.str1.1
                0x0064f512      0x148 lib_arm/libarm.a(board.o)
                                0x16b (size before relaxing)
 .rodata.str1.1
                0x0064f65a      0x1f0 net/libnet.a(net.o)
                                0x212 (size before relaxing)
 .rodata.str1.1
                0x0064f84a      0x192 net/libnet.a(tftp.o)
                                0x1c6 (size before relaxing)
 .rodata.str1.1
                0x0064f9dc       0xbf net/libnet.a(bootp.o)
                                 0xf8 (size before relaxing)
 .rodata.str1.1
                0x0064fa9b       0x13 net/libnet.a(rarp.o)
                                 0x43 (size before relaxing)
 .rodata.str1.1
                0x0064faae       0xb7 net/libnet.a(eth.o)
                                 0xea (size before relaxing)
 .rodata.str1.1
                0x0064fb65      0x2a3 net/libnet.a(rcvr.o)
                                0x2af (size before relaxing)
 .rodata.str1.1
                0x0064fe08      0x18d disk/libdisk.a(part.o)
                                0x1a6 (size before relaxing)
 .rodata.str1.1
                0x0064ff95       0xee disk/libdisk.a(part_dos.o)
                                 0xf6 (size before relaxing)
 .rodata.str1.1
                0x00650083      0x25a disk/libdisk.a(part_efi.o)
                                0x267 (size before relaxing)
 .rodata.str1.1
                0x006502dd      0x23e drivers/libdrivers.a(cfi_flash.o)
                                0x286 (size before relaxing)
 .rodata.str1.1
                0x0065051b       0x5a drivers/libdrivers.a(pci.o)
 .rodata.str1.1
                0x00650575        0x8 drivers/nand/libnand.a(nand.o)
 .rodata.str1.1
                0x0065057d      0x39c drivers/nand/libnand.a(nand_base.o)
 .rodata.str1.1
                0x00650919      0x3aa drivers/nand/libnand.a(nand_ids.o)
                                0x3c7 (size before relaxing)
 .rodata.str1.1
                0x00650cc3      0x2f0 drivers/nand/libnand.a(nand_bbt.o)
 .rodata.str1.1
                0x00650fb3      0x529 drivers/nand/libnand.a(nand_util.o)
                                0x52b (size before relaxing)
 .rodata.str1.1
                0x006514dc       0xdf common/libcommon.a(main.o)
                                0x111 (size before relaxing)
 .rodata.str1.1
                0x006515bb      0x100 common/libcommon.a(cmd_boot.o)
                                0x111 (size before relaxing)
 .rodata.str1.1
                0x006516bb      0x60f common/libcommon.a(cmd_bootm.o)
                                0x658 (size before relaxing)
 .rodata.str1.1
                0x00651cca      0x154 common/libcommon.a(cmd_date.o)
                                0x16a (size before relaxing)
 .rodata.str1.1
                0x00651e1e       0xe1 common/libcommon.a(cmd_eeprom.o)
                                 0xfd (size before relaxing)
 .rodata.str1.1
                0x00651eff      0x332 common/libcommon.a(cmd_ext2.o)
                                0x3d0 (size before relaxing)
 .rodata.str1.1
                0x00652231      0x855 common/libcommon.a(cmd_flash.o)
                                0x8a3 (size before relaxing)
 .rodata.str1.1
                0x00652a86      0x3b6 common/libcommon.a(cmd_i2c.o)
                                0x3eb (size before relaxing)
 .rodata.str1.1
                0x00652e3c      0xef3 common/libcommon.a(cmd_jffs2.o)
                                0xf42 (size before relaxing)
 .rodata.str1.1
                0x00653d2f      0x694 common/libcommon.a(cmd_mem.o)
                                0x708 (size before relaxing)
 .rodata.str1.1
                0x006543c3      0x8d5 common/libcommon.a(cmd_nand.o)
                                0x978 (size before relaxing)
 .rodata.str1.1
                0x00654c98      0x1af common/libcommon.a(cmd_net.o)
                                0x222 (size before relaxing)
 .rodata.str1.1
                0x00654e47      0x2f8 common/libcommon.a(cmd_nvedit.o)
                                0x359 (size before relaxing)
 .rodata.str1.1
                0x0065513f      0xd61 common/libcommon.a(cmd_pci.o)
                                0xded (size before relaxing)
 .rodata.str1.1
                0x00655ea0      0x325 common/libcommon.a(cmd_scsi.o)
                                0x4bd (size before relaxing)
 .rodata.str1.1
                0x006561c5      0x261 common/libcommon.a(command.o)
                                0x293 (size before relaxing)
 .rodata.str1.1
                0x00656426       0x2f common/libcommon.a(devices.o)
                                 0x43 (size before relaxing)
 .rodata.str1.1
                0x00656455       0x33 common/libcommon.a(env_common.o)
                                 0x37 (size before relaxing)
 .rodata.str1.1
                0x00656488       0xcb common/libcommon.a(env_nand.o)
                                 0xd1 (size before relaxing)
 .rodata.str1.1
                0x00656553      0x10c common/libcommon.a(flash.o)
 .rodata.str1.1
                0x0065665f        0xa lib_generic/libgeneric.a(display_options.o)
                                 0x18 (size before relaxing)
 .rodata.str1.1
                0x00656669       0x51 lib_generic/libgeneric.a(vsprintf.o)
 .rodata.str1.1
                0x006566ba      0x1f3 lib_generic/libgeneric.a(zlib.o)
                                0x1f4 (size before relaxing)
 .rodata.str1.1
                0x006568ad      0x107 board/mv_feroceon/config_kw/libconfig_kw.a(mv_dram.o)
                                0x109 (size before relaxing)
 .rodata.str1.1
                0x006569b4       0x38 board/mv_feroceon/config_kw/libconfig_kw.a(mv_rtc.o)
 .rodata.str1.1
                0x006569ec      0x127 board/mv_feroceon/config_kw/libconfig_kw.a(mv_egiga.o)
                                0x140 (size before relaxing)
 .rodata.str1.1
                0x00656b13       0x46 board/mv_feroceon/config_kw/libconfig_kw.a(mvDramIf.o)
 .rodata.str1.1
                0x00656b59      0xf34 board/mv_feroceon/config_kw/libconfig_kw.a(mvSpd.o)
                                0xf43 (size before relaxing)
 .rodata.str1.1
                0x00657a8d       0x9a lib_arm/libarm.a(armlinux.o)
                                0x122 (size before relaxing)
 .rodata.str1.1
                0x00657b27      0x18b fs/cramfs/libcramfs.a(cramfs.o)
                                0x18f (size before relaxing)
 .rodata.str1.1
                0x00000000       0x23 fs/cramfs/libcramfs.a(uncompress.o)
 .rodata.str1.1
                0x00657cb2      0x3e8 fs/jffs2/libjffs2.a(jffs2_1pass.o)
                                0x401 (size before relaxing)
 .rodata.str1.1
                0x0065809a      0x1b7 fs/ext2/libext2fs.a(ext2fs.o)
                                0x1be (size before relaxing)
 .rodata.str1.1
                0x00658251       0xdc fs/ext2/libext2fs.a(dev.o)
 .rodata.str1.1
                0x0065832d      0x1ca drivers/libdrivers.a(ahci.o)
                                0x1db (size before relaxing)

.ARM.extab      0x006584f8       0x18
 .ARM.extab     0x006584f8        0xc /opt/devel/proto/marvell/build-eabi/kernel-toolchain/bin/../lib/gcc/arm-none-linux-gnueabi/4.2.1/libgcc.a(_divdi3.o)
 .ARM.extab     0x00658504        0xc /opt/devel/proto/marvell/build-eabi/kernel-toolchain/bin/../lib/gcc/arm-none-linux-gnueabi/4.2.1/libgcc.a(_udivdi3.o)

.ARM.exidx      0x00658510       0x10
 .ARM.exidx     0x00658510        0x8 /opt/devel/proto/marvell/build-eabi/kernel-toolchain/bin/../lib/gcc/arm-none-linux-gnueabi/4.2.1/libgcc.a(_divdi3.o)
 .ARM.exidx     0x00658518        0x8 /opt/devel/proto/marvell/build-eabi/kernel-toolchain/bin/../lib/gcc/arm-none-linux-gnueabi/4.2.1/libgcc.a(_udivdi3.o)
                0x00658520                . = ALIGN (0x4)

.got            0x00658520        0x4
 *(.got)
 .got           0x00658520        0x4 /opt/devel/proto/marvell/build-eabi/kernel-toolchain/bin/../lib/gcc/arm-none-linux-gnueabi/4.2.1/libgcc.a(_divdi3.o)
                0x00670000                . = (_start + 0x70000)

.reset_vector_sect
                0x00670000      0x18c
 board/mv_feroceon/USP/jump.o(.reset_vector_sect)
 .reset_vector_sect
                0x00670000      0x18c board/mv_feroceon/USP/jump.o
                0x00670154                dramBoot

.rel.dyn        0x0067018c        0x0
 .rel.got       0x00000000        0x0 /opt/devel/proto/marvell/build-eabi/kernel-toolchain/bin/../lib/gcc/arm-none-linux-gnueabi/4.2.1/libgcc.a(_divdi3.o)
                0x00000000                . = ALIGN (0x4)

.data           0x0067018c     0x1fa4
 *(.data)
 .data          0x0067018c        0x0 cpu/arm926ejs/start.o
 .data          0x0067018c        0x0 board/mv_feroceon/USP/jump.o
 .data          0x0067018c        0x0 board/mv_feroceon/config_kw/libconfig_kw.a(platform.o)
 .data          0x0067018c        0x0 board/mv_feroceon/config_kw/libconfig_kw.a(mvTwsiEeprom.o)
 .data          0x0067018c       0x60 board/mv_feroceon/config_kw/libconfig_kw.a(mv_cmd.o)
                0x0067018c                _4BitSwapArry
                0x006701cc                _3BitSwapArry
 .data          0x006701ec      0x1c8 board/mv_feroceon/config_kw/libconfig_kw.a(mv_main.o)
                0x006703a8                initial_lcm_pkg
                0x006702a4                mvCpuAddrWinMap
                0x0067020c                nand_layout_info
                0x006701ec                delay_tbl
 .data          0x006703b4        0x0 board/mv_feroceon/config_kw/libconfig_kw.a(mvCtrlEnvLib.o)
 .data          0x006703b4        0x0 board/mv_feroceon/config_kw/libconfig_kw.a(mvAhbToMbus.o)
 .data          0x006703b4       0x40 board/mv_feroceon/config_kw/libconfig_kw.a(mvCpuIf.o)
                0x006703b4                sampleAtResetTargetArray6180P
                0x006703d4                sampleAtResetTargetArrayP
 .data          0x006703f4       0x24 board/mv_feroceon/config_kw/libconfig_kw.a(mvSysXor.o)
                0x006703f4                xorAddrDecPrioTap
 .data          0x00670418        0x0 board/mv_feroceon/config_kw/libconfig_kw.a(mvSysDram.o)
 .data          0x00670418       0x28 board/mv_feroceon/config_kw/libconfig_kw.a(mvSysGbe.o)
                0x00670418                ethAddrDecPrioTap
 .data          0x00670440       0x2c board/mv_feroceon/config_kw/libconfig_kw.a(mvSysTs.o)
                0x00670440                tsuAddrDecPrioTap
 .data          0x0067046c       0x14 board/mv_feroceon/config_kw/libconfig_kw.a(mvSysPex.o)
                0x0067046c                pexDevBarPrioTable
 .data          0x00670480       0x18 board/mv_feroceon/config_kw/libconfig_kw.a(mvSysUsb.o)
                0x00670480                usbAddrDecPrioTab
 .data          0x00670498        0x0 board/mv_feroceon/config_kw/libconfig_kw.a(mvCpu.o)
 .data          0x00670498        0x8 board/mv_feroceon/config_kw/libconfig_kw.a(mvBoardEnvLib.o)
                0x00670498                gBoardId
                0x0067049c                tClkRate
 .data          0x006704a0      0x688 board/mv_feroceon/config_kw/libconfig_kw.a(mvBoardEnvSpec.o)
                0x006704f0                db88f6281AInfoBoardGppInfo
                0x00670750                db88f6192AInfoBoardGppInfo
                0x0067061c                rd88f6281AInfoBoardDeCsInfo
                0x006704d8                db88f6281AInfoBoardMacInfo
                0x00670804                db88f6190AInfo
                0x00670898                rd88f6192AInfoBoardDeCsInfo
                0x006709b4                rd88f6190AInfo
                0x00670534                db88f6281AInfo
                0x006704a0                db88f6281AInfoBoardTwsiDev
                0x006704e8                db88f6281AInfoBoardMppTypeInfo
                0x0067062c                rd88f6281AInfoBoardGppInfo
                0x00670a50                db88f6180AInfoBoardGppInfo
                0x00670508                db88f6281AInfoBoardDeCsInfo
                0x006705b4                rd88f6281AInfoBoardMacInfo
                0x00670934                rd88f6192AInfo
                0x00670768                db88f6192AInfoBoardMppConfigValue
                0x00670784                db88f6192AInfo
                0x00670a8c                db88f6180AInfo
                0x0067060c                rd88f6281AInfoBoardTwsiDev
                0x006708a8                rd88f6192AInfoBoardGppInfo
                0x006706f0                db88f6192AInfoBoardTwsiDev
                0x00670670                rd88f6281AInfo
                0x00670518                db88f6281AInfoBoardMppConfigValue
                0x00670890                rd88f6192AInfoBoardMppTypeInfo
                0x00670a60                db88f6180AInfoBoardDeCsInfo
                0x00670738                db88f6192AInfoBoardMppTypeInfo
                0x00670b0c                boardInfoTbl
                0x00670a70                db88f6180AInfoBoardMppConfigValue
                0x00670728                db88f6192AInfoBoardMacInfo
                0x00670918                rd88f6192AInfoBoardMppConfigValue
                0x00670614                rd88f6281AInfoBoardMppTypeInfo
                0x00670654                rd88f6281AInfoBoardMppConfigValue
                0x00670888                rd88f6192AInfoBoardMacInfo
                0x00670a38                db88f6180AInfoBoardTwsiDev
                0x00670884                rd88f6192AInfoBoardDebugLedIf
                0x00670a48                db88f6180AInfoBoardMacInfo
                0x00670a58                db88f6180AInfoBoardMppTypeInfo
                0x006705c4                rd88f6281AInfoBoardSwitchInfo
                0x00670740                db88f6192AInfoBoardDeCsInfo
                0x00670a34                db88f6180AInfoBoardDebugLedIf
 .data          0x00670b28       0x18 board/mv_feroceon/config_kw/libconfig_kw.a(mv_flash.o)
 .data          0x00670b40        0x0 board/mv_feroceon/config_kw/libconfig_kw.a(mv_pageTable.o)
 .data          0x00670b40        0x0 board/mv_feroceon/config_kw/libconfig_kw.a(mv_mon_init.o)
 .data          0x00670b40       0x78 board/mv_feroceon/config_kw/libconfig_kw.a(mv_pci.o)
                0x00670b40                mv_config_table
 .data          0x00670bb8       0x44 board/mv_feroceon/config_kw/libconfig_kw.a(mv_ide.o)
 .data          0x00670bfc        0x0 board/mv_feroceon/config_kw/libconfig_kw.a(mv_protectionUnit.o)
 .data          0x00670bfc        0x0 board/mv_feroceon/config_kw/libconfig_kw.a(mv_ext2_boot.o)
 .data          0x00670bfc        0x0 board/mv_feroceon/config_kw/libconfig_kw.a(mvCommon.o)
 .data          0x00670bfc        0x0 board/mv_feroceon/config_kw/libconfig_kw.a(mvOs.o)
 .data          0x00670bfc        0x0 board/mv_feroceon/config_kw/libconfig_kw.a(mvFlashCom.o)
 .data          0x00670bfc       0x20 board/mv_feroceon/config_kw/libconfig_kw.a(mvSata.o)
                0x00670bfc                edmaRegOffst
 .data          0x00670c1c        0x0 board/mv_feroceon/config_kw/libconfig_kw.a(mvStorageDev.o)
 .data          0x00670c1c        0x0 board/mv_feroceon/config_kw/libconfig_kw.a(mvSFlash.o)
 .data          0x00670c1c        0x0 board/mv_feroceon/config_kw/libconfig_kw.a(mvEthPhy.o)
 .data          0x00670c1c        0x0 board/mv_feroceon/config_kw/libconfig_kw.a(mvRtc.o)
 .data          0x00670c1c        0x0 board/mv_feroceon/config_kw/libconfig_kw.a(mvTwsi.o)
 .data          0x00670c1c        0x0 board/mv_feroceon/config_kw/libconfig_kw.a(mvGpp.o)
 .data          0x00670c1c        0x0 board/mv_feroceon/config_kw/libconfig_kw.a(mvSpi.o)
 .data          0x00670c1c        0x0 board/mv_feroceon/config_kw/libconfig_kw.a(mvSpiCmnd.o)
 .data          0x00670c1c        0x0 board/mv_feroceon/config_kw/libconfig_kw.a(mvUsb.o)
 .data          0x00670c1c        0x0 board/mv_feroceon/config_kw/libconfig_kw.a(mvXor.o)
 .data          0x00670c1c        0x0 board/mv_feroceon/config_kw/libconfig_kw.a(mvEth.o)
 .data          0x00670c1c        0x0 board/mv_feroceon/config_kw/libconfig_kw.a(mvPciIf.o)
 .data          0x00670c1c        0x0 board/mv_feroceon/config_kw/libconfig_kw.a(mvPex.o)
 .data          0x00670c1c       0x10 board/mv_feroceon/config_kw/libconfig_kw.a(mvTsu.o)
                0x00670c1c                mvTsuCoreClock2Val
 .data          0x00670c2c        0x0 board/mv_feroceon/config_kw/libconfig_kw.a(mvMD5.o)
 .data          0x00670c2c        0x4 board/mv_feroceon/config_kw/libconfig_kw.a(mvSwitch.o)
                0x00670c2c                switchMultiChipMode
 .data          0x00670c30       0x68 board/mv_feroceon/config_kw/libconfig_kw.a(mvCtrlEnvAddrDec.o)
                0x00670c30                mvTargetDefaultsArray
 .data          0x00670c98       0x18 board/mv_feroceon/config_kw/libconfig_kw.a(mvSysSata.o)
                0x00670c98                sataAddrDecPrioTab
 .data          0x00670cb0        0x0 board/mv_feroceon/config_kw/libconfig_kw.a(mvPciUtils.o)
 .data          0x00670cb0        0x0 board/mv_feroceon/config_kw/libconfig_kw.a(mvOsSata.o)
 .data          0x00670cb0        0x0 cpu/arm926ejs/libarm926ejs.a(interrupts.o)
 .data          0x00670cb0       0x28 lib_arm/libarm.a(board.o)
                0x00670cb0                init_sequence
 .data          0x00670cd8        0x0 lib_arm/libarm.a(cache.o)
 .data          0x00670cd8        0xa net/libnet.a(net.o)
                0x00670cda                NetBcastAddr
                0x00670ce0                NetOurNativeVLAN
                0x00670cd8                NetOurVLAN
 .data          0x00670ce2        0x0 net/libnet.a(tftp.o)
 .data          0x00670ce2        0x0 net/libnet.a(bootp.o)
 .data          0x00670ce2        0x0 net/libnet.a(rarp.o)
 .data          0x00670ce2        0x0 net/libnet.a(eth.o)
 .data          0x00670ce2        0x0 net/libnet.a(rcvr.o)
 .data          0x00670ce2        0x0 disk/libdisk.a(part.o)
 .data          0x00670ce2        0x0 disk/libdisk.a(part_dos.o)
 .data          0x00670ce2        0x0 disk/libdisk.a(part_efi.o)
 *fill*         0x00670ce2        0x2 00
 .data          0x00670ce4       0x14 drivers/libdrivers.a(cfi_flash.o)
 .data          0x00670cf8        0x0 drivers/libdrivers.a(pci.o)
 .data          0x00670cf8        0x0 drivers/libdrivers.a(pci_auto.o)
 .data          0x00670cf8        0x4 drivers/nand/libnand.a(nand.o)
                0x00670cf8                nand_curr_device
 .data          0x00670cfc      0x2f8 drivers/nand/libnand.a(nand_base.o)
 .data          0x00670ff4      0x530 drivers/nand/libnand.a(nand_ids.o)
                0x006714ec                nand_manuf_ids
                0x00670ff4                nand_flash_ids
 .data          0x00671524        0x0 drivers/nand/libnand.a(nand_ecc.o)
 .data          0x00671524      0x10c drivers/nand/libnand.a(nand_bbt.o)
 .data          0x00671630      0x2b8 drivers/nand/libnand.a(nand_util.o)
 .data          0x006718e8        0xd common/libcommon.a(main.o)
 .data          0x006718f5        0x0 common/libcommon.a(cmd_boot.o)
 *fill*         0x006718f5        0x3 00
 .data          0x006718f8        0x4 common/libcommon.a(cmd_bootm.o)
                0x006718f8                load_addr
 .data          0x006718fc       0x1c common/libcommon.a(cmd_date.o)
                0x006718fc                weekdays
 .data          0x00671918        0x0 common/libcommon.a(cmd_eeprom.o)
 .data          0x00671918        0x0 common/libcommon.a(cmd_ext2.o)
 .data          0x00671918        0x0 common/libcommon.a(cmd_flash.o)
 .data          0x00671918        0x4 common/libcommon.a(cmd_i2c.o)
 .data          0x0067191c        0x0 common/libcommon.a(cmd_jffs2.o)
 .data          0x0067191c        0x4 common/libcommon.a(cmd_mem.o)
                0x0067191c                dp_last_length
 .data          0x00671920        0x0 common/libcommon.a(cmd_nand.o)
 .data          0x00671920        0x0 common/libcommon.a(cmd_net.o)
 .data          0x00671920        0x0 common/libcommon.a(cmd_nvedit.o)
 .data          0x00671920        0x1 common/libcommon.a(cmd_pci.o)
                0x00671920                ShortPCIListing
 .data          0x00671921        0x0 common/libcommon.a(cmd_scsi.o)
 .data          0x00671921        0x0 common/libcommon.a(command.o)
 .data          0x00671921        0x0 common/libcommon.a(console.o)
 *fill*         0x00671921        0x3 00
 .data          0x00671924        0xc common/libcommon.a(devices.o)
                0x00671924                stdio_names
 .data          0x00671930      0x414 common/libcommon.a(dlmalloc.o)
 .data          0x00671d44       0x88 common/libcommon.a(env_common.o)
                0x00671dc4                env_get_char
                0x00671d44                default_environment
                0x00671dc8                default_environment_size
 .data          0x00671dcc        0x4 common/libcommon.a(env_nand.o)
                0x00671dcc                env_name_spec
 .data          0x00671dd0        0x0 common/libcommon.a(exports.o)
 .data          0x00671dd0        0x0 common/libcommon.a(flash.o)
 .data          0x00671dd0        0x0 common/libcommon.a(lists.o)
 .data          0x00671dd0        0x0 lib_generic/libgeneric.a(crc32.o)
 .data          0x00671dd0      0x100 lib_generic/libgeneric.a(ctype.o)
                0x00671dd0                _ctype
 .data          0x00671ed0        0x0 lib_generic/libgeneric.a(display_options.o)
 .data          0x00671ed0        0x0 lib_generic/libgeneric.a(string.o)
 .data          0x00671ed0        0x0 lib_generic/libgeneric.a(vsprintf.o)
 .data          0x00671ed0      0x210 lib_generic/libgeneric.a(zlib.o)
                0x006720bc                zlib_version
                0x006720c0                z_errmsg
 .data          0x006720e0        0x0 board/mv_feroceon/config_kw/libconfig_kw.a(mvCntmr.o)
 .data          0x006720e0        0x0 board/mv_feroceon/config_kw/libconfig_kw.a(mv_dram.o)
 .data          0x006720e0        0x0 board/mv_feroceon/config_kw/libconfig_kw.a(mv_serial.o)
 .data          0x006720e0        0x0 board/mv_feroceon/config_kw/libconfig_kw.a(mv_rtc.o)
 .data          0x006720e0        0x0 board/mv_feroceon/config_kw/libconfig_kw.a(mv_nand.o)
 .data          0x006720e0        0x0 board/mv_feroceon/config_kw/libconfig_kw.a(mv_egiga.o)
 .data          0x006720e0        0x0 board/mv_feroceon/config_kw/libconfig_kw.a(mv_i2c.o)
 .data          0x006720e0       0x10 board/mv_feroceon/config_kw/libconfig_kw.a(mvDramIf.o)
                0x006720e0                DRAM_CS_Order
 .data          0x006720f0        0x0 board/mv_feroceon/config_kw/libconfig_kw.a(mvUart.o)
 .data          0x006720f0        0x0 board/mv_feroceon/config_kw/libconfig_kw.a(mvSpd.o)
 .data          0x006720f0        0x0 cpu/arm926ejs/libarm926ejs.a(cpu.o)
 .data          0x006720f0        0x0 lib_arm/libarm.a(armlinux.o)
 .data          0x006720f0        0x0 fs/cramfs/libcramfs.a(cramfs.o)
 .data          0x006720f0        0x0 fs/cramfs/libcramfs.a(uncompress.o)
 .data          0x006720f0        0x4 fs/jffs2/libjffs2.a(jffs2_1pass.o)
 .data          0x006720f4        0x0 fs/jffs2/libjffs2.a(compr_rtime.o)
 .data          0x006720f4        0x0 fs/jffs2/libjffs2.a(compr_rubin.o)
 .data          0x006720f4        0x0 fs/jffs2/libjffs2.a(compr_zlib.o)
 .data          0x006720f4        0x0 fs/jffs2/libjffs2.a(mini_inflate.o)
 .data          0x006720f4        0x8 fs/ext2/libext2fs.a(ext2fs.o)
                0x006720f4                indir1_blkno
                0x006720f8                indir2_blkno
 .data          0x006720fc        0x0 fs/ext2/libext2fs.a(dev.o)
 .data          0x006720fc       0x30 rtc/librtc.a(date.o)
 .data          0x0067212c        0x4 drivers/libdrivers.a(ahci.o)
                0x0067212c                probe_ent
 .data          0x00672130        0x0 /opt/devel/proto/marvell/build-eabi/kernel-toolchain/bin/../lib/gcc/arm-none-linux-gnueabi/4.2.1/libgcc.a(_udivsi3.o)
 .data          0x00672130        0x0 /opt/devel/proto/marvell/build-eabi/kernel-toolchain/bin/../lib/gcc/arm-none-linux-gnueabi/4.2.1/libgcc.a(_divsi3.o)
 .data          0x00672130        0x0 /opt/devel/proto/marvell/build-eabi/kernel-toolchain/bin/../lib/gcc/arm-none-linux-gnueabi/4.2.1/libgcc.a(_ashrdi3.o)
 .data          0x00672130        0x0 /opt/devel/proto/marvell/build-eabi/kernel-toolchain/bin/../lib/gcc/arm-none-linux-gnueabi/4.2.1/libgcc.a(_ashldi3.o)
 .data          0x00672130        0x0 /opt/devel/proto/marvell/build-eabi/kernel-toolchain/bin/../lib/gcc/arm-none-linux-gnueabi/4.2.1/libgcc.a(_aeabi_uldivmod.o)
 .data          0x00672130        0x0 /opt/devel/proto/marvell/build-eabi/kernel-toolchain/bin/../lib/gcc/arm-none-linux-gnueabi/4.2.1/libgcc.a(_dvmd_lnx.o)
 .data          0x00672130        0x0 /opt/devel/proto/marvell/build-eabi/kernel-toolchain/bin/../lib/gcc/arm-none-linux-gnueabi/4.2.1/libgcc.a(bpabi.o)
 .data          0x00672130        0x0 /opt/devel/proto/marvell/build-eabi/kernel-toolchain/bin/../lib/gcc/arm-none-linux-gnueabi/4.2.1/libgcc.a(_divdi3.o)
 .data          0x00672130        0x0 /opt/devel/proto/marvell/build-eabi/kernel-toolchain/bin/../lib/gcc/arm-none-linux-gnueabi/4.2.1/libgcc.a(_udivdi3.o)
 .data          0x00672130        0x0 /opt/devel/proto/marvell/build-eabi/kernel-toolchain/bin/../lib/gcc/arm-none-linux-gnueabi/4.2.1/libgcc.a(_clz.o)

.got.plt        0x00672130        0xc
 .got.plt       0x00672130        0xc /opt/devel/proto/marvell/build-eabi/kernel-toolchain/bin/../lib/gcc/arm-none-linux-gnueabi/4.2.1/libgcc.a(_divdi3.o)
                0x00672130                _GLOBAL_OFFSET_TABLE_
                0x0067213c                . = ALIGN (0x4)
                0x0067213c                __u_boot_cmd_start = .

.u_boot_cmd     0x0067213c      0x888
 *(.u_boot_cmd)
 .u_boot_cmd    0x0067213c      0x1c0 board/mv_feroceon/config_kw/libconfig_kw.a(mv_cmd.o)
                0x0067228c                __u_boot_cmd_phyRead
                0x0067221c                __u_boot_cmd_fi
                0x00672200                __u_boot_cmd_g
                0x00672270                __u_boot_cmd_pciePhyWrite
                0x006721ac                __u_boot_cmd_dclk
                0x006721e4                __u_boot_cmd_map
                0x006722e0                __u_boot_cmd_rcvr
                0x006722c4                __u_boot_cmd_SatR
                0x00672158                __u_boot_cmd_nbubt
                0x006721c8                __u_boot_cmd_sg
                0x0067213c                __u_boot_cmd_bubt
                0x006722a8                __u_boot_cmd_phyWrite
                0x00672190                __u_boot_cmd_ir
                0x00672238                __u_boot_cmd_cmpm
                0x00672174                __u_boot_cmd_resetenv
                0x00672254                __u_boot_cmd_pciePhyRead
 .u_boot_cmd    0x006722fc       0x1c board/mv_feroceon/config_kw/libconfig_kw.a(mv_flash.o)
                0x006722fc                __u_boot_cmd_sflash
 .u_boot_cmd    0x00672318       0x1c board/mv_feroceon/config_kw/libconfig_kw.a(mv_pageTable.o)
                0x00672318                __u_boot_cmd_cpumap
 .u_boot_cmd    0x00672334       0x70 board/mv_feroceon/config_kw/libconfig_kw.a(mv_pci.o)
                0x00672388                __u_boot_cmd_mp
                0x00672350                __u_boot_cmd_me
                0x0067236c                __u_boot_cmd_se
                0x00672334                __u_boot_cmd_sp
 .u_boot_cmd    0x006723a4       0x38 board/mv_feroceon/config_kw/libconfig_kw.a(mv_ide.o)
                0x006723a4                __u_boot_cmd_ide
                0x006723c0                __u_boot_cmd_diskboot
 .u_boot_cmd    0x006723dc       0x1c board/mv_feroceon/config_kw/libconfig_kw.a(mv_ext2_boot.o)
                0x006723dc                __u_boot_cmd_bootext2
 .u_boot_cmd    0x006723f8       0x38 common/libcommon.a(cmd_boot.o)
                0x00672414                __u_boot_cmd_reset
                0x006723f8                __u_boot_cmd_go
 .u_boot_cmd    0x00672430       0x54 common/libcommon.a(cmd_bootm.o)
                0x00672430                __u_boot_cmd_bootm
                0x00672468                __u_boot_cmd_bootd
                0x0067244c                __u_boot_cmd_boot
 .u_boot_cmd    0x00672484       0x1c common/libcommon.a(cmd_date.o)
                0x00672484                __u_boot_cmd_date
 .u_boot_cmd    0x006724a0       0x1c common/libcommon.a(cmd_eeprom.o)
                0x006724a0                __u_boot_cmd_eeprom
 .u_boot_cmd    0x006724bc       0x38 common/libcommon.a(cmd_ext2.o)
                0x006724d8                __u_boot_cmd_ext2load
                0x006724bc                __u_boot_cmd_ext2ls
 .u_boot_cmd    0x006724f4       0x54 common/libcommon.a(cmd_flash.o)
                0x006724f4                __u_boot_cmd_flinfo
                0x00672510                __u_boot_cmd_erase
                0x0067252c                __u_boot_cmd_protect
 .u_boot_cmd    0x00672548       0xc4 common/libcommon.a(cmd_i2c.o)
                0x006725b8                __u_boot_cmd_icrc32
                0x0067259c                __u_boot_cmd_imw
                0x00672564                __u_boot_cmd_imm
                0x00672548                __u_boot_cmd_imd
                0x006725f0                __u_boot_cmd_iloop
                0x006725d4                __u_boot_cmd_iprobe
                0x00672580                __u_boot_cmd_inm
 .u_boot_cmd    0x0067260c       0x8c common/libcommon.a(cmd_jffs2.o)
                0x00672644                __u_boot_cmd_fsinfo
                0x0067260c                __u_boot_cmd_fsload
                0x00672660                __u_boot_cmd_chpart
                0x0067267c                __u_boot_cmd_mtdparts
                0x00672628                __u_boot_cmd_ls
 .u_boot_cmd    0x00672698      0x134 common/libcommon.a(cmd_mem.o)
                0x00672698                __u_boot_cmd_md
                0x00672724                __u_boot_cmd_cmp
                0x006726ec                __u_boot_cmd_mw
                0x00672794                __u_boot_cmd_loop
                0x00672778                __u_boot_cmd_base
                0x006726b4                __u_boot_cmd_mm
                0x0067275c                __u_boot_cmd_crc32
                0x006726d0                __u_boot_cmd_nm
                0x006727b0                __u_boot_cmd_mtest
                0x00672708                __u_boot_cmd_cp
                0x00672740                __u_boot_cmd_check_crc32
 .u_boot_cmd    0x006727cc       0x38 common/libcommon.a(cmd_nand.o)
                0x006727cc                __u_boot_cmd_nand
                0x006727e8                __u_boot_cmd_nboot
 .u_boot_cmd    0x00672804       0x8c common/libcommon.a(cmd_net.o)
                0x00672874                __u_boot_cmd_ping
                0x0067283c                __u_boot_cmd_rarpboot
                0x00672820                __u_boot_cmd_tftpboot
                0x00672804                __u_boot_cmd_bootp
                0x00672858                __u_boot_cmd_dhcp
 .u_boot_cmd    0x00672890       0x70 common/libcommon.a(cmd_nvedit.o)
                0x006728e4                __u_boot_cmd_run
                0x006728c8                __u_boot_cmd_saveenv
                0x00672890                __u_boot_cmd_printenv
                0x006728ac                __u_boot_cmd_setenv
 .u_boot_cmd    0x00672900       0x1c common/libcommon.a(cmd_pci.o)
                0x00672900                __u_boot_cmd_pci
 .u_boot_cmd    0x0067291c       0x38 common/libcommon.a(cmd_scsi.o)
                0x00672938                __u_boot_cmd_scsiboot
                0x0067291c                __u_boot_cmd_scsi
 .u_boot_cmd    0x00672954       0x70 common/libcommon.a(command.o)
                0x00672970                __u_boot_cmd_echo
                0x006729a8                __u_boot_cmd_question_mark
                0x00672954                __u_boot_cmd_version
                0x0067298c                __u_boot_cmd_help
                0x006729c4                __u_boot_cmd_end = .
                0x0067fff0                . = (_start + 0x7fff0)
                0x0067fff0                __bss_start = .

.bss            0x00680000    0x104f0
 *(.bss)
 .bss           0x00680000        0x0 cpu/arm926ejs/start.o
 .bss           0x00680000        0x0 board/mv_feroceon/USP/jump.o
 .bss           0x00680000        0x0 board/mv_feroceon/config_kw/libconfig_kw.a(platform.o)
 .bss           0x00680000        0x0 board/mv_feroceon/config_kw/libconfig_kw.a(mvTwsiEeprom.o)
 .bss           0x00680000        0x0 board/mv_feroceon/config_kw/libconfig_kw.a(mv_cmd.o)
 .bss           0x00680000       0x38 board/mv_feroceon/config_kw/libconfig_kw.a(mv_main.o)
                0x00680004                mv_board_num_flash_banks
                0x00680030                krnl_off_addr
                0x0068002c                prer_off_addr
                0x00680026                yuk_enetaddr
                0x00680034                root_off_addr
 .bss           0x00680038        0x4 board/mv_feroceon/config_kw/libconfig_kw.a(mvCtrlEnvLib.o)
 .bss           0x0068003c        0x0 board/mv_feroceon/config_kw/libconfig_kw.a(mvAhbToMbus.o)
 .bss           0x0068003c        0x4 board/mv_feroceon/config_kw/libconfig_kw.a(mvCpuIf.o)
                0x0068003c                sampleAtResetTargetArray
 .bss           0x00680040        0x0 board/mv_feroceon/config_kw/libconfig_kw.a(mvSysXor.o)
 .bss           0x00680040        0x0 board/mv_feroceon/config_kw/libconfig_kw.a(mvSysDram.o)
 .bss           0x00680040        0x4 board/mv_feroceon/config_kw/libconfig_kw.a(mvSysGbe.o)
 .bss           0x00680044        0x0 board/mv_feroceon/config_kw/libconfig_kw.a(mvSysTs.o)
 .bss           0x00680044        0x0 board/mv_feroceon/config_kw/libconfig_kw.a(mvSysPex.o)
 .bss           0x00680044        0x0 board/mv_feroceon/config_kw/libconfig_kw.a(mvSysUsb.o)
 .bss           0x00680044        0x0 board/mv_feroceon/config_kw/libconfig_kw.a(mvCpu.o)
 .bss           0x00680044        0x0 board/mv_feroceon/config_kw/libconfig_kw.a(mvBoardEnvLib.o)
 .bss           0x00680044        0x0 board/mv_feroceon/config_kw/libconfig_kw.a(mvBoardEnvSpec.o)
 .bss           0x00680044     0x4744 board/mv_feroceon/config_kw/libconfig_kw.a(mv_flash.o)
 .bss           0x00684788        0x0 board/mv_feroceon/config_kw/libconfig_kw.a(mv_pageTable.o)
 .bss           0x00684788        0x0 board/mv_feroceon/config_kw/libconfig_kw.a(mv_mon_init.o)
 .bss           0x00684788      0x6a4 board/mv_feroceon/config_kw/libconfig_kw.a(mv_pci.o)
                0x00684788                bus_scan
                0x0068478c                pci_hose
 *fill*         0x00684e2c      0x1d4 00
 .bss           0x00685000     0x3800 board/mv_feroceon/config_kw/libconfig_kw.a(mv_ide.o)
                0x00685000                request_q
                0x00685d90                sataAdapters
                0x00685100                response_q
                0x006885a0                prd_table
 .bss           0x00688800        0x0 board/mv_feroceon/config_kw/libconfig_kw.a(mv_protectionUnit.o)
 .bss           0x00688800       0xc8 board/mv_feroceon/config_kw/libconfig_kw.a(mv_ext2_boot.o)
 .bss           0x006888c8        0x0 board/mv_feroceon/config_kw/libconfig_kw.a(mvCommon.o)
 .bss           0x006888c8        0x0 board/mv_feroceon/config_kw/libconfig_kw.a(mvOs.o)
 .bss           0x006888c8        0x0 board/mv_feroceon/config_kw/libconfig_kw.a(mvFlashCom.o)
 .bss           0x006888c8        0x0 board/mv_feroceon/config_kw/libconfig_kw.a(mvSata.o)
 .bss           0x006888c8        0x0 board/mv_feroceon/config_kw/libconfig_kw.a(mvStorageDev.o)
 .bss           0x006888c8        0x0 board/mv_feroceon/config_kw/libconfig_kw.a(mvSFlash.o)
 .bss           0x006888c8        0x0 board/mv_feroceon/config_kw/libconfig_kw.a(mvEthPhy.o)
 .bss           0x006888c8        0x0 board/mv_feroceon/config_kw/libconfig_kw.a(mvRtc.o)
 .bss           0x006888c8        0x0 board/mv_feroceon/config_kw/libconfig_kw.a(mvTwsi.o)
 .bss           0x006888c8        0x0 board/mv_feroceon/config_kw/libconfig_kw.a(mvGpp.o)
 .bss           0x006888c8        0x0 board/mv_feroceon/config_kw/libconfig_kw.a(mvSpi.o)
 .bss           0x006888c8        0x0 board/mv_feroceon/config_kw/libconfig_kw.a(mvSpiCmnd.o)
 .bss           0x006888c8        0x0 board/mv_feroceon/config_kw/libconfig_kw.a(mvUsb.o)
 .bss           0x006888c8        0x0 board/mv_feroceon/config_kw/libconfig_kw.a(mvXor.o)
 .bss           0x006888c8       0x10 board/mv_feroceon/config_kw/libconfig_kw.a(mvEth.o)
                0x006888d0                ethDescInSram
                0x006888c8                ethPortCtrl
                0x006888d4                ethDescSwCoher
 .bss           0x006888d8        0x0 board/mv_feroceon/config_kw/libconfig_kw.a(mvPciIf.o)
 .bss           0x006888d8        0x0 board/mv_feroceon/config_kw/libconfig_kw.a(mvPex.o)
 .bss           0x006888d8       0xa4 board/mv_feroceon/config_kw/libconfig_kw.a(mvTsu.o)
                0x006888d8                mvTsuCtrl
                0x006888e8                mvTsuPortCtrl
                0x00688978                g_type
 .bss           0x0068897c        0x0 board/mv_feroceon/config_kw/libconfig_kw.a(mvMD5.o)
 .bss           0x0068897c        0x0 board/mv_feroceon/config_kw/libconfig_kw.a(mvSwitch.o)
 .bss           0x0068897c        0x0 board/mv_feroceon/config_kw/libconfig_kw.a(mvCtrlEnvAddrDec.o)
 .bss           0x0068897c        0x0 board/mv_feroceon/config_kw/libconfig_kw.a(mvSysSata.o)
 .bss           0x0068897c        0x0 board/mv_feroceon/config_kw/libconfig_kw.a(mvPciUtils.o)
 .bss           0x0068897c        0x0 board/mv_feroceon/config_kw/libconfig_kw.a(mvOsSata.o)
 .bss           0x0068897c        0x8 cpu/arm926ejs/libarm926ejs.a(interrupts.o)
 .bss           0x00688984       0x10 lib_arm/libarm.a(board.o)
                0x00688990                monitor_flash_len
 .bss           0x00688994        0x0 lib_arm/libarm.a(cache.o)
 .bss           0x00688994     0x25d8 net/libnet.a(net.o)
                0x006889f0                NetArpWaitTry
                0x006889cc                NetArpWaitPacketMAC
                0x0068899c                NetOurEther
                0x006889a8                NetOurIP
                0x006889ac                NetPingIP
                0x006889d8                NetServerIP
                0x006889d4                NetArpWaitTxPacketSize
                0x006889c0                NetArpWaitReplyIP
                0x006889d0                NetArpWaitTxPacket
                0x0068a830                NetRxPackets
                0x0068ae68                NetOurNISDomain
                0x006889b4                NetArpWaitPacketIP
                0x00688994                NetState
                0x0068aeea                BootFile
                0x006889dc                NetServerEther
                0x006889b8                NetOurSubnetMask
                0x0068aee8                NetBootFileSize
                0x006889a4                NetIPID
                0x0068ae88                NetOurHostName
                0x006889c4                NetRxPkt
                0x006889bc                NetOurGatewayIP
                0x006889e8                NetEtherNullAddr
                0x00688a08                NetRestartWrap
                0x0068a840                NetArpWaitPacketBuf
                0x006889c8                NetRxPktLen
                0x006889b0                NetTxPacket
                0x0068ae60                NetBootFileXferSize
                0x0068ae64                NetOurDNSIP
                0x00688a10                PktBuf
                0x0068aea8                NetOurRootPath
                0x006889f4                NetArpWaitTimerStart
 .bss           0x0068af6c       0x34 net/libnet.a(tftp.o)
 .bss           0x0068afa0       0x14 net/libnet.a(bootp.o)
                0x0068afa4                NetDHCPServerIP
                0x0068afa8                dhcp_state
                0x0068afac                BootpTry
                0x0068afb0                BootpID
                0x0068afa0                dhcp_leasetime
 .bss           0x0068afb4        0x4 net/libnet.a(rarp.o)
                0x0068afb4                RarpTry
 .bss           0x0068afb8        0xc net/libnet.a(eth.o)
 .bss           0x0068afc4       0x14 net/libnet.a(rcvr.o)
                0x0068afc4                peerTID
                0x0068afd0                rcvr_state
                0x0068afc8                myTID
                0x0068afcc                imagePtr
                0x0068afd4                packetNum
 .bss           0x0068afd8        0x0 disk/libdisk.a(part.o)
 .bss           0x0068afd8        0x0 disk/libdisk.a(part_dos.o)
 .bss           0x0068afd8        0x0 disk/libdisk.a(part_efi.o)
 .bss           0x0068afd8     0x1e3c drivers/libdrivers.a(cfi_flash.o)
                0x0068afd8                flash_info
 .bss           0x0068ce14       0x14 drivers/libdrivers.a(pci.o)
 .bss           0x0068ce28        0x0 drivers/libdrivers.a(pci_auto.o)
 .bss           0x0068ce28      0x224 drivers/nand/libnand.a(nand.o)
                0x0068ce28                nand_info
 .bss           0x0068d04c        0x0 drivers/nand/libnand.a(nand_base.o)
 .bss           0x0068d04c        0x0 drivers/nand/libnand.a(nand_ids.o)
 .bss           0x0068d04c        0x0 drivers/nand/libnand.a(nand_ecc.o)
 .bss           0x0068d04c        0x0 drivers/nand/libnand.a(nand_bbt.o)
 .bss           0x0068d04c      0x928 drivers/nand/libnand.a(nand_util.o)
 .bss           0x0068d974      0x800 common/libcommon.a(main.o)
                0x0068d974                console_buffer
 .bss           0x0068e174        0x0 common/libcommon.a(cmd_boot.o)
 .bss           0x0068e174      0x108 common/libcommon.a(cmd_bootm.o)
                0x0068e1b4                extraBootArgs
                0x0068e174                header
 .bss           0x0068e27c        0x0 common/libcommon.a(cmd_date.o)
 .bss           0x0068e27c        0x0 common/libcommon.a(cmd_eeprom.o)
 .bss           0x0068e27c        0x0 common/libcommon.a(cmd_ext2.o)
 .bss           0x0068e27c        0x0 common/libcommon.a(cmd_flash.o)
 .bss           0x0068e27c       0x18 common/libcommon.a(cmd_i2c.o)
 .bss           0x0068e294      0x2ac common/libcommon.a(cmd_jffs2.o)
                0x0068e4b4                mtdids
                0x0068e294                devices
 .bss           0x0068e540       0x18 common/libcommon.a(cmd_mem.o)
                0x0068e554                dp_last_size
                0x0068e550                dp_last_addr
                0x0068e54c                mm_last_size
                0x0068e548                mm_last_addr
                0x0068e540                retry_count
 .bss           0x0068e558        0x0 common/libcommon.a(cmd_nand.o)
 .bss           0x0068e558        0x0 common/libcommon.a(cmd_net.o)
 .bss           0x0068e558        0x0 common/libcommon.a(cmd_nvedit.o)
 .bss           0x0068e558        0x0 common/libcommon.a(cmd_pci.o)
 .bss           0x0068e558      0x360 common/libcommon.a(cmd_scsi.o)
 .bss           0x0068e8b8      0x600 common/libcommon.a(command.o)
 .bss           0x0068eeb8        0x8 common/libcommon.a(console.o)
 .bss           0x0068eec0       0x10 common/libcommon.a(devices.o)
                0x0068eec0                devlist
                0x0068eec4                stdio_devices
 .bss           0x0068eed0       0x38 common/libcommon.a(dlmalloc.o)
 .bss           0x0068ef08        0x0 common/libcommon.a(env_common.o)
 .bss           0x0068ef08        0x4 common/libcommon.a(env_nand.o)
                0x0068ef08                env_ptr
 .bss           0x0068ef0c        0x0 common/libcommon.a(exports.o)
 .bss           0x0068ef0c        0x0 common/libcommon.a(flash.o)
 .bss           0x0068ef0c        0x0 common/libcommon.a(lists.o)
 .bss           0x0068ef0c        0x0 lib_generic/libgeneric.a(crc32.o)
 .bss           0x0068ef0c        0x0 lib_generic/libgeneric.a(ctype.o)
 .bss           0x0068ef0c        0x0 lib_generic/libgeneric.a(display_options.o)
 .bss           0x0068ef0c        0x4 lib_generic/libgeneric.a(string.o)
                0x0068ef0c                ___strtok
 .bss           0x0068ef10        0x0 lib_generic/libgeneric.a(vsprintf.o)
 .bss           0x0068ef10     0x10a8 lib_generic/libgeneric.a(zlib.o)
 .bss           0x0068ffb8        0x0 board/mv_feroceon/config_kw/libconfig_kw.a(mvCntmr.o)
 .bss           0x0068ffb8        0x0 board/mv_feroceon/config_kw/libconfig_kw.a(mv_dram.o)
 .bss           0x0068ffb8        0x0 board/mv_feroceon/config_kw/libconfig_kw.a(mv_serial.o)
 .bss           0x0068ffb8        0x0 board/mv_feroceon/config_kw/libconfig_kw.a(mv_rtc.o)
 .bss           0x0068ffb8        0x0 board/mv_feroceon/config_kw/libconfig_kw.a(mv_nand.o)
 .bss           0x0068ffb8        0x4 board/mv_feroceon/config_kw/libconfig_kw.a(mv_egiga.o)
                0x0068ffb8                egiga_init
 .bss           0x0068ffbc        0x0 board/mv_feroceon/config_kw/libconfig_kw.a(mv_i2c.o)
 .bss           0x0068ffbc        0x0 board/mv_feroceon/config_kw/libconfig_kw.a(mvDramIf.o)
 .bss           0x0068ffbc        0x8 board/mv_feroceon/config_kw/libconfig_kw.a(mvUart.o)
 .bss           0x0068ffc4        0x0 board/mv_feroceon/config_kw/libconfig_kw.a(mvSpd.o)
 .bss           0x0068ffc4        0x0 cpu/arm926ejs/libarm926ejs.a(cpu.o)
 .bss           0x0068ffc4        0x4 lib_arm/libarm.a(armlinux.o)
 .bss           0x0068ffc8       0x4c fs/cramfs/libcramfs.a(cramfs.o)
                0x0068ffc8                super
 .bss           0x00690014       0x34 fs/cramfs/libcramfs.a(uncompress.o)
 .bss           0x00690048        0x8 fs/jffs2/libjffs2.a(jffs2_1pass.o)
 .bss           0x00690050        0x0 fs/jffs2/libjffs2.a(compr_rtime.o)
 .bss           0x00690050        0x0 fs/jffs2/libjffs2.a(compr_rubin.o)
 .bss           0x00690050        0x0 fs/jffs2/libjffs2.a(compr_zlib.o)
 .bss           0x00690050        0x0 fs/jffs2/libjffs2.a(mini_inflate.o)
 .bss           0x00690050       0x1c fs/ext2/libext2fs.a(ext2fs.o)
                0x00690054                ext2fs_file
                0x00690068                symlinknest
                0x0069005c                indir1_size
                0x00690058                indir1_block
                0x00690060                indir2_block
                0x00690050                ext2fs_root
                0x00690064                indir2_size
 .bss           0x0069006c       0x54 fs/ext2/libext2fs.a(dev.o)
 .bss           0x006900c0        0x0 rtc/librtc.a(date.o)
 .bss           0x006900c0      0x430 drivers/libdrivers.a(ahci.o)
                0x006900c0                ataid
 .bss           0x006904f0        0x0 /opt/devel/proto/marvell/build-eabi/kernel-toolchain/bin/../lib/gcc/arm-none-linux-gnueabi/4.2.1/libgcc.a(_udivsi3.o)
 .bss           0x006904f0        0x0 /opt/devel/proto/marvell/build-eabi/kernel-toolchain/bin/../lib/gcc/arm-none-linux-gnueabi/4.2.1/libgcc.a(_divsi3.o)
 .bss           0x006904f0        0x0 /opt/devel/proto/marvell/build-eabi/kernel-toolchain/bin/../lib/gcc/arm-none-linux-gnueabi/4.2.1/libgcc.a(_ashrdi3.o)
 .bss           0x006904f0        0x0 /opt/devel/proto/marvell/build-eabi/kernel-toolchain/bin/../lib/gcc/arm-none-linux-gnueabi/4.2.1/libgcc.a(_ashldi3.o)
 .bss           0x006904f0        0x0 /opt/devel/proto/marvell/build-eabi/kernel-toolchain/bin/../lib/gcc/arm-none-linux-gnueabi/4.2.1/libgcc.a(_aeabi_uldivmod.o)
 .bss           0x006904f0        0x0 /opt/devel/proto/marvell/build-eabi/kernel-toolchain/bin/../lib/gcc/arm-none-linux-gnueabi/4.2.1/libgcc.a(_dvmd_lnx.o)
 .bss           0x006904f0        0x0 /opt/devel/proto/marvell/build-eabi/kernel-toolchain/bin/../lib/gcc/arm-none-linux-gnueabi/4.2.1/libgcc.a(bpabi.o)
 .bss           0x006904f0        0x0 /opt/devel/proto/marvell/build-eabi/kernel-toolchain/bin/../lib/gcc/arm-none-linux-gnueabi/4.2.1/libgcc.a(_divdi3.o)
 .bss           0x006904f0        0x0 /opt/devel/proto/marvell/build-eabi/kernel-toolchain/bin/../lib/gcc/arm-none-linux-gnueabi/4.2.1/libgcc.a(_udivdi3.o)
 .bss           0x006904f0        0x0 /opt/devel/proto/marvell/build-eabi/kernel-toolchain/bin/../lib/gcc/arm-none-linux-gnueabi/4.2.1/libgcc.a(_clz.o)
                0x006904f0                _end = .
Address of section .text set to 0x600000
LOAD cpu/arm926ejs/start.o
START GROUP
LOAD lib_generic/libgeneric.a
LOAD board/mv_feroceon/config_kw/libconfig_kw.a
LOAD cpu/arm926ejs/libarm926ejs.a
LOAD lib_arm/libarm.a
LOAD fs/cramfs/libcramfs.a
LOAD fs/fat/libfat.a
LOAD fs/fdos/libfdos.a
LOAD fs/jffs2/libjffs2.a
LOAD fs/reiserfs/libreiserfs.a
LOAD fs/ext2/libext2fs.a
LOAD net/libnet.a
LOAD disk/libdisk.a
LOAD rtc/librtc.a
LOAD dtt/libdtt.a
LOAD drivers/libdrivers.a
LOAD drivers/nand/libnand.a
LOAD drivers/sk98lin/libsk98lin.a
LOAD post/libpost.a
LOAD post/cpu/libcpu.a
LOAD common/libcommon.a
END GROUP
LOAD /opt/devel/proto/marvell/build-eabi/kernel-toolchain/bin/../lib/gcc/arm-none-linux-gnueabi/4.2.1/libgcc.a
OUTPUT(u-boot elf32-littlearm)

.stab           0x00000000     0x1014
 .stab          0x00000000      0x4c8 cpu/arm926ejs/start.o
 .stab          0x000004c8      0x360 board/mv_feroceon/USP/jump.o
                                0x36c (size before relaxing)
 .stab          0x00000828      0x12c board/mv_feroceon/config_kw/libconfig_kw.a(platform.o)
                                0x138 (size before relaxing)
 .stab          0x00000954      0x6c0 board/mv_feroceon/config_kw/libconfig_kw.a(mvTwsiEeprom.o)
                                0x6cc (size before relaxing)

.ARM.attributes
                0x00000000       0x26
 .ARM.attributes
                0x00000000       0x18 cpu/arm926ejs/start.o
 .ARM.attributes
                0x00000018       0x18 board/mv_feroceon/USP/jump.o
 .ARM.attributes
                0x00000030       0x18 board/mv_feroceon/config_kw/libconfig_kw.a(platform.o)
 .ARM.attributes
                0x00000048       0x18 board/mv_feroceon/config_kw/libconfig_kw.a(mvTwsiEeprom.o)
 .ARM.attributes
                0x00000060       0x28 board/mv_feroceon/config_kw/libconfig_kw.a(mv_cmd.o)
 .ARM.attributes
                0x00000088       0x28 board/mv_feroceon/config_kw/libconfig_kw.a(mv_main.o)
 .ARM.attributes
                0x000000b0       0x28 board/mv_feroceon/config_kw/libconfig_kw.a(mvCtrlEnvLib.o)
 .ARM.attributes
                0x000000d8       0x28 board/mv_feroceon/config_kw/libconfig_kw.a(mvAhbToMbus.o)
 .ARM.attributes
                0x00000100       0x28 board/mv_feroceon/config_kw/libconfig_kw.a(mvCpuIf.o)
 .ARM.attributes
                0x00000128       0x28 board/mv_feroceon/config_kw/libconfig_kw.a(mvSysXor.o)
 .ARM.attributes
                0x00000150       0x28 board/mv_feroceon/config_kw/libconfig_kw.a(mvSysDram.o)
 .ARM.attributes
                0x00000178       0x28 board/mv_feroceon/config_kw/libconfig_kw.a(mvSysGbe.o)
 .ARM.attributes
                0x000001a0       0x28 board/mv_feroceon/config_kw/libconfig_kw.a(mvSysTs.o)
 .ARM.attributes
                0x000001c8       0x28 board/mv_feroceon/config_kw/libconfig_kw.a(mvSysPex.o)
 .ARM.attributes
                0x000001f0       0x28 board/mv_feroceon/config_kw/libconfig_kw.a(mvSysUsb.o)
 .ARM.attributes
                0x00000218       0x28 board/mv_feroceon/config_kw/libconfig_kw.a(mvCpu.o)
 .ARM.attributes
                0x00000240       0x28 board/mv_feroceon/config_kw/libconfig_kw.a(mvBoardEnvLib.o)
 .ARM.attributes
                0x00000268       0x26 board/mv_feroceon/config_kw/libconfig_kw.a(mvBoardEnvSpec.o)
 .ARM.attributes
                0x0000028e       0x28 board/mv_feroceon/config_kw/libconfig_kw.a(mv_flash.o)
 .ARM.attributes
                0x000002b6       0x28 board/mv_feroceon/config_kw/libconfig_kw.a(mv_pageTable.o)
 .ARM.attributes
                0x000002de       0x28 board/mv_feroceon/config_kw/libconfig_kw.a(mv_mon_init.o)
 .ARM.attributes
                0x00000306       0x28 board/mv_feroceon/config_kw/libconfig_kw.a(mv_pci.o)
 .ARM.attributes
                0x0000032e       0x28 board/mv_feroceon/config_kw/libconfig_kw.a(mv_ide.o)
 .ARM.attributes
                0x00000356       0x28 board/mv_feroceon/config_kw/libconfig_kw.a(mv_protectionUnit.o)
 .ARM.attributes
                0x0000037e       0x28 board/mv_feroceon/config_kw/libconfig_kw.a(mv_ext2_boot.o)
 .ARM.attributes
                0x000003a6       0x28 board/mv_feroceon/config_kw/libconfig_kw.a(mvCommon.o)
 .ARM.attributes
                0x000003ce       0x28 board/mv_feroceon/config_kw/libconfig_kw.a(mvOs.o)
 .ARM.attributes
                0x000003f6       0x28 board/mv_feroceon/config_kw/libconfig_kw.a(mvFlashCom.o)
 .ARM.attributes
                0x0000041e       0x28 board/mv_feroceon/config_kw/libconfig_kw.a(mvSata.o)
 .ARM.attributes
                0x00000446       0x28 board/mv_feroceon/config_kw/libconfig_kw.a(mvStorageDev.o)
 .ARM.attributes
                0x0000046e       0x28 board/mv_feroceon/config_kw/libconfig_kw.a(mvSFlash.o)
 .ARM.attributes
                0x00000496       0x28 board/mv_feroceon/config_kw/libconfig_kw.a(mvEthPhy.o)
 .ARM.attributes
                0x000004be       0x28 board/mv_feroceon/config_kw/libconfig_kw.a(mvRtc.o)
 .ARM.attributes
                0x000004e6       0x28 board/mv_feroceon/config_kw/libconfig_kw.a(mvTwsi.o)
 .ARM.attributes
                0x0000050e       0x28 board/mv_feroceon/config_kw/libconfig_kw.a(mvGpp.o)
 .ARM.attributes
                0x00000536       0x28 board/mv_feroceon/config_kw/libconfig_kw.a(mvSpi.o)
 .ARM.attributes
                0x0000055e       0x28 board/mv_feroceon/config_kw/libconfig_kw.a(mvSpiCmnd.o)
 .ARM.attributes
                0x00000586       0x28 board/mv_feroceon/config_kw/libconfig_kw.a(mvUsb.o)
 .ARM.attributes
                0x000005ae       0x28 board/mv_feroceon/config_kw/libconfig_kw.a(mvXor.o)
 .ARM.attributes
                0x000005d6       0x28 board/mv_feroceon/config_kw/libconfig_kw.a(mvEth.o)
 .ARM.attributes
                0x000005fe       0x28 board/mv_feroceon/config_kw/libconfig_kw.a(mvPciIf.o)
 .ARM.attributes
                0x00000626       0x28 board/mv_feroceon/config_kw/libconfig_kw.a(mvPex.o)
 .ARM.attributes
                0x0000064e       0x28 board/mv_feroceon/config_kw/libconfig_kw.a(mvTsu.o)
 .ARM.attributes
                0x00000676       0x28 board/mv_feroceon/config_kw/libconfig_kw.a(mvMD5.o)
 .ARM.attributes
                0x0000069e       0x28 board/mv_feroceon/config_kw/libconfig_kw.a(mvSwitch.o)
 .ARM.attributes
                0x000006c6       0x28 board/mv_feroceon/config_kw/libconfig_kw.a(mvCtrlEnvAddrDec.o)
 .ARM.attributes
                0x000006ee       0x28 board/mv_feroceon/config_kw/libconfig_kw.a(mvSysSata.o)
 .ARM.attributes
                0x00000716       0x28 board/mv_feroceon/config_kw/libconfig_kw.a(mvPciUtils.o)
 .ARM.attributes
                0x0000073e       0x28 board/mv_feroceon/config_kw/libconfig_kw.a(mvOsSata.o)
 .ARM.attributes
                0x00000766       0x28 cpu/arm926ejs/libarm926ejs.a(interrupts.o)
 .ARM.attributes
                0x0000078e       0x28 lib_arm/libarm.a(board.o)
 .ARM.attributes
                0x000007b6       0x28 lib_arm/libarm.a(cache.o)
 .ARM.attributes
                0x000007de       0x28 net/libnet.a(net.o)
 .ARM.attributes
                0x00000806       0x28 net/libnet.a(tftp.o)
 .ARM.attributes
                0x0000082e       0x28 net/libnet.a(bootp.o)
 .ARM.attributes
                0x00000856       0x28 net/libnet.a(rarp.o)
 .ARM.attributes
                0x0000087e       0x28 net/libnet.a(eth.o)
 .ARM.attributes
                0x000008a6       0x28 net/libnet.a(rcvr.o)
 .ARM.attributes
                0x000008ce       0x28 disk/libdisk.a(part.o)
 .ARM.attributes
                0x000008f6       0x28 disk/libdisk.a(part_dos.o)
 .ARM.attributes
                0x0000091e       0x28 disk/libdisk.a(part_efi.o)
 .ARM.attributes
                0x00000946       0x28 drivers/libdrivers.a(cfi_flash.o)
 .ARM.attributes
                0x0000096e       0x28 drivers/libdrivers.a(pci.o)
 .ARM.attributes
                0x00000996       0x28 drivers/libdrivers.a(pci_auto.o)
 .ARM.attributes
                0x000009be       0x28 drivers/nand/libnand.a(nand.o)
 .ARM.attributes
                0x000009e6       0x28 drivers/nand/libnand.a(nand_base.o)
 .ARM.attributes
                0x00000a0e       0x26 drivers/nand/libnand.a(nand_ids.o)
 .ARM.attributes
                0x00000a34       0x28 drivers/nand/libnand.a(nand_ecc.o)
 .ARM.attributes
                0x00000a5c       0x28 drivers/nand/libnand.a(nand_bbt.o)
 .ARM.attributes
                0x00000a84       0x28 drivers/nand/libnand.a(nand_util.o)
 .ARM.attributes
                0x00000aac       0x28 common/libcommon.a(main.o)
 .ARM.attributes
                0x00000ad4       0x28 common/libcommon.a(cmd_boot.o)
 .ARM.attributes
                0x00000afc       0x28 common/libcommon.a(cmd_bootm.o)
 .ARM.attributes
                0x00000b24       0x28 common/libcommon.a(cmd_date.o)
 .ARM.attributes
                0x00000b4c       0x28 common/libcommon.a(cmd_eeprom.o)
 .ARM.attributes
                0x00000b74       0x28 common/libcommon.a(cmd_ext2.o)
 .ARM.attributes
                0x00000b9c       0x28 common/libcommon.a(cmd_flash.o)
 .ARM.attributes
                0x00000bc4       0x28 common/libcommon.a(cmd_i2c.o)
 .ARM.attributes
                0x00000bec       0x28 common/libcommon.a(cmd_jffs2.o)
 .ARM.attributes
                0x00000c14       0x28 common/libcommon.a(cmd_mem.o)
 .ARM.attributes
                0x00000c3c       0x28 common/libcommon.a(cmd_nand.o)
 .ARM.attributes
                0x00000c64       0x28 common/libcommon.a(cmd_net.o)
 .ARM.attributes
                0x00000c8c       0x28 common/libcommon.a(cmd_nvedit.o)
 .ARM.attributes
                0x00000cb4       0x28 common/libcommon.a(cmd_pci.o)
 .ARM.attributes
                0x00000cdc       0x28 common/libcommon.a(cmd_scsi.o)
 .ARM.attributes
                0x00000d04       0x28 common/libcommon.a(command.o)
 .ARM.attributes
                0x00000d2c       0x28 common/libcommon.a(console.o)
 .ARM.attributes
                0x00000d54       0x28 common/libcommon.a(devices.o)
 .ARM.attributes
                0x00000d7c       0x28 common/libcommon.a(dlmalloc.o)
 .ARM.attributes
                0x00000da4       0x28 common/libcommon.a(env_common.o)
 .ARM.attributes
                0x00000dcc       0x28 common/libcommon.a(env_nand.o)
 .ARM.attributes
                0x00000df4       0x28 common/libcommon.a(exports.o)
 .ARM.attributes
                0x00000e1c       0x28 common/libcommon.a(flash.o)
 .ARM.attributes
                0x00000e44       0x28 common/libcommon.a(lists.o)
 .ARM.attributes
                0x00000e6c       0x28 lib_generic/libgeneric.a(crc32.o)
 .ARM.attributes
                0x00000e94       0x26 lib_generic/libgeneric.a(ctype.o)
 .ARM.attributes
                0x00000eba       0x28 lib_generic/libgeneric.a(display_options.o)
 .ARM.attributes
                0x00000ee2       0x28 lib_generic/libgeneric.a(string.o)
 .ARM.attributes
                0x00000f0a       0x28 lib_generic/libgeneric.a(vsprintf.o)
 .ARM.attributes
                0x00000f32       0x28 lib_generic/libgeneric.a(zlib.o)
 .ARM.attributes
                0x00000f5a       0x28 board/mv_feroceon/config_kw/libconfig_kw.a(mvCntmr.o)
 .ARM.attributes
                0x00000f82       0x28 board/mv_feroceon/config_kw/libconfig_kw.a(mv_dram.o)
 .ARM.attributes
                0x00000faa       0x28 board/mv_feroceon/config_kw/libconfig_kw.a(mv_serial.o)
 .ARM.attributes
                0x00000fd2       0x28 board/mv_feroceon/config_kw/libconfig_kw.a(mv_rtc.o)
 .ARM.attributes
                0x00000ffa       0x28 board/mv_feroceon/config_kw/libconfig_kw.a(mv_nand.o)
 .ARM.attributes
                0x00001022       0x28 board/mv_feroceon/config_kw/libconfig_kw.a(mv_egiga.o)
 .ARM.attributes
                0x0000104a       0x28 board/mv_feroceon/config_kw/libconfig_kw.a(mv_i2c.o)
 .ARM.attributes
                0x00001072       0x28 board/mv_feroceon/config_kw/libconfig_kw.a(mvDramIf.o)
 .ARM.attributes
                0x0000109a       0x28 board/mv_feroceon/config_kw/libconfig_kw.a(mvUart.o)
 .ARM.attributes
                0x000010c2       0x28 board/mv_feroceon/config_kw/libconfig_kw.a(mvSpd.o)
 .ARM.attributes
                0x000010ea       0x28 cpu/arm926ejs/libarm926ejs.a(cpu.o)
 .ARM.attributes
                0x00001112       0x28 lib_arm/libarm.a(armlinux.o)
 .ARM.attributes
                0x0000113a       0x28 fs/cramfs/libcramfs.a(cramfs.o)
 .ARM.attributes
                0x00001162       0x28 fs/cramfs/libcramfs.a(uncompress.o)
 .ARM.attributes
                0x0000118a       0x28 fs/jffs2/libjffs2.a(jffs2_1pass.o)
 .ARM.attributes
                0x000011b2       0x28 fs/jffs2/libjffs2.a(compr_rtime.o)
 .ARM.attributes
                0x000011da       0x28 fs/jffs2/libjffs2.a(compr_rubin.o)
 .ARM.attributes
                0x00001202       0x28 fs/jffs2/libjffs2.a(compr_zlib.o)
 .ARM.attributes
                0x0000122a       0x28 fs/jffs2/libjffs2.a(mini_inflate.o)
 .ARM.attributes
                0x00001252       0x28 fs/ext2/libext2fs.a(ext2fs.o)
 .ARM.attributes
                0x0000127a       0x28 fs/ext2/libext2fs.a(dev.o)
 .ARM.attributes
                0x000012a2       0x28 rtc/librtc.a(date.o)
 .ARM.attributes
                0x000012ca       0x28 drivers/libdrivers.a(ahci.o)
 .ARM.attributes
                0x000012f2       0x14 /opt/devel/proto/marvell/build-eabi/kernel-toolchain/bin/../lib/gcc/arm-none-linux-gnueabi/4.2.1/libgcc.a(_udivsi3.o)
 .ARM.attributes
                0x00001306       0x14 /opt/devel/proto/marvell/build-eabi/kernel-toolchain/bin/../lib/gcc/arm-none-linux-gnueabi/4.2.1/libgcc.a(_divsi3.o)
 .ARM.attributes
                0x0000131a       0x14 /opt/devel/proto/marvell/build-eabi/kernel-toolchain/bin/../lib/gcc/arm-none-linux-gnueabi/4.2.1/libgcc.a(_ashrdi3.o)
 .ARM.attributes
                0x0000132e       0x14 /opt/devel/proto/marvell/build-eabi/kernel-toolchain/bin/../lib/gcc/arm-none-linux-gnueabi/4.2.1/libgcc.a(_ashldi3.o)
 .ARM.attributes
                0x00001342       0x14 /opt/devel/proto/marvell/build-eabi/kernel-toolchain/bin/../lib/gcc/arm-none-linux-gnueabi/4.2.1/libgcc.a(_aeabi_uldivmod.o)
 .ARM.attributes
                0x00001356       0x14 /opt/devel/proto/marvell/build-eabi/kernel-toolchain/bin/../lib/gcc/arm-none-linux-gnueabi/4.2.1/libgcc.a(_dvmd_lnx.o)
 .ARM.attributes
                0x0000136a       0x2f /opt/devel/proto/marvell/build-eabi/kernel-toolchain/bin/../lib/gcc/arm-none-linux-gnueabi/4.2.1/libgcc.a(bpabi.o)
 .ARM.attributes
                0x00001399       0x2f /opt/devel/proto/marvell/build-eabi/kernel-toolchain/bin/../lib/gcc/arm-none-linux-gnueabi/4.2.1/libgcc.a(_divdi3.o)
 .ARM.attributes
                0x000013c8       0x2f /opt/devel/proto/marvell/build-eabi/kernel-toolchain/bin/../lib/gcc/arm-none-linux-gnueabi/4.2.1/libgcc.a(_udivdi3.o)
 .ARM.attributes
                0x000013f7       0x2d /opt/devel/proto/marvell/build-eabi/kernel-toolchain/bin/../lib/gcc/arm-none-linux-gnueabi/4.2.1/libgcc.a(_clz.o)

.stabstr        0x00000000      0x128
 .stabstr       0x00000000      0x128 cpu/arm926ejs/start.o

.debug_abbrev   0x00000000    0x106c5
 .debug_abbrev  0x00000000      0x2ec board/mv_feroceon/config_kw/libconfig_kw.a(mv_cmd.o)
 .debug_abbrev  0x000002ec      0x3cc board/mv_feroceon/config_kw/libconfig_kw.a(mv_main.o)
 .debug_abbrev  0x000006b8      0x26a board/mv_feroceon/config_kw/libconfig_kw.a(mvCtrlEnvLib.o)
 .debug_abbrev  0x00000922      0x20c board/mv_feroceon/config_kw/libconfig_kw.a(mvAhbToMbus.o)
 .debug_abbrev  0x00000b2e      0x22c board/mv_feroceon/config_kw/libconfig_kw.a(mvCpuIf.o)
 .debug_abbrev  0x00000d5a      0x299 board/mv_feroceon/config_kw/libconfig_kw.a(mvSysXor.o)
 .debug_abbrev  0x00000ff3      0x17f board/mv_feroceon/config_kw/libconfig_kw.a(mvSysDram.o)
 .debug_abbrev  0x00001172      0x242 board/mv_feroceon/config_kw/libconfig_kw.a(mvSysGbe.o)
 .debug_abbrev  0x000013b4      0x23c board/mv_feroceon/config_kw/libconfig_kw.a(mvSysTs.o)
 .debug_abbrev  0x000015f0      0x28e board/mv_feroceon/config_kw/libconfig_kw.a(mvSysPex.o)
 .debug_abbrev  0x0000187e      0x24e board/mv_feroceon/config_kw/libconfig_kw.a(mvSysUsb.o)
 .debug_abbrev  0x00001acc      0x23d board/mv_feroceon/config_kw/libconfig_kw.a(mvCpu.o)
 .debug_abbrev  0x00001d09      0x306 board/mv_feroceon/config_kw/libconfig_kw.a(mvBoardEnvLib.o)
 .debug_abbrev  0x0000200f      0x120 board/mv_feroceon/config_kw/libconfig_kw.a(mvBoardEnvSpec.o)
 .debug_abbrev  0x0000212f      0x304 board/mv_feroceon/config_kw/libconfig_kw.a(mv_flash.o)
 .debug_abbrev  0x00002433      0x24e board/mv_feroceon/config_kw/libconfig_kw.a(mv_pageTable.o)
 .debug_abbrev  0x00002681      0x101 board/mv_feroceon/config_kw/libconfig_kw.a(mv_mon_init.o)
 .debug_abbrev  0x00002782      0x385 board/mv_feroceon/config_kw/libconfig_kw.a(mv_pci.o)
 .debug_abbrev  0x00002b07      0x41d board/mv_feroceon/config_kw/libconfig_kw.a(mv_ide.o)
 .debug_abbrev  0x00002f24      0x280 board/mv_feroceon/config_kw/libconfig_kw.a(mv_protectionUnit.o)
 .debug_abbrev  0x000031a4      0x14f board/mv_feroceon/config_kw/libconfig_kw.a(mv_ext2_boot.o)
 .debug_abbrev  0x000032f3      0x170 board/mv_feroceon/config_kw/libconfig_kw.a(mvCommon.o)
 .debug_abbrev  0x00003463      0x18a board/mv_feroceon/config_kw/libconfig_kw.a(mvOs.o)
 .debug_abbrev  0x000035ed      0x2b8 board/mv_feroceon/config_kw/libconfig_kw.a(mvFlashCom.o)
 .debug_abbrev  0x000038a5      0x3cf board/mv_feroceon/config_kw/libconfig_kw.a(mvSata.o)
 .debug_abbrev  0x00003c74      0x313 board/mv_feroceon/config_kw/libconfig_kw.a(mvStorageDev.o)
 .debug_abbrev  0x00003f87      0x245 board/mv_feroceon/config_kw/libconfig_kw.a(mvSFlash.o)
 .debug_abbrev  0x000041cc      0x1bd board/mv_feroceon/config_kw/libconfig_kw.a(mvEthPhy.o)
 .debug_abbrev  0x00004389      0x138 board/mv_feroceon/config_kw/libconfig_kw.a(mvRtc.o)
 .debug_abbrev  0x000044c1      0x2cd board/mv_feroceon/config_kw/libconfig_kw.a(mvTwsi.o)
 .debug_abbrev  0x0000478e      0x180 board/mv_feroceon/config_kw/libconfig_kw.a(mvGpp.o)
 .debug_abbrev  0x0000490e      0x1ef board/mv_feroceon/config_kw/libconfig_kw.a(mvSpi.o)
 .debug_abbrev  0x00004afd      0x11f board/mv_feroceon/config_kw/libconfig_kw.a(mvSpiCmnd.o)
 .debug_abbrev  0x00004c1c      0x23b board/mv_feroceon/config_kw/libconfig_kw.a(mvUsb.o)
 .debug_abbrev  0x00004e57      0x1cf board/mv_feroceon/config_kw/libconfig_kw.a(mvXor.o)
 .debug_abbrev  0x00005026      0x3b9 board/mv_feroceon/config_kw/libconfig_kw.a(mvEth.o)
 .debug_abbrev  0x000053df      0x17f board/mv_feroceon/config_kw/libconfig_kw.a(mvPciIf.o)
 .debug_abbrev  0x0000555e      0x1c5 board/mv_feroceon/config_kw/libconfig_kw.a(mvPex.o)
 .debug_abbrev  0x00005723      0x23d board/mv_feroceon/config_kw/libconfig_kw.a(mvTsu.o)
 .debug_abbrev  0x00005960      0x1ac board/mv_feroceon/config_kw/libconfig_kw.a(mvMD5.o)
 .debug_abbrev  0x00005b0c      0x152 board/mv_feroceon/config_kw/libconfig_kw.a(mvSwitch.o)
 .debug_abbrev  0x00005c5e      0x1a8 board/mv_feroceon/config_kw/libconfig_kw.a(mvCtrlEnvAddrDec.o)
 .debug_abbrev  0x00005e06      0x25d board/mv_feroceon/config_kw/libconfig_kw.a(mvSysSata.o)
 .debug_abbrev  0x00006063      0x20d board/mv_feroceon/config_kw/libconfig_kw.a(mvPciUtils.o)
 .debug_abbrev  0x00006270       0xe3 board/mv_feroceon/config_kw/libconfig_kw.a(mvOsSata.o)
 .debug_abbrev  0x00006353      0x22f cpu/arm926ejs/libarm926ejs.a(interrupts.o)
 .debug_abbrev  0x00006582      0x2b0 lib_arm/libarm.a(board.o)
 .debug_abbrev  0x00006832       0xe3 lib_arm/libarm.a(cache.o)
 .debug_abbrev  0x00006915      0x3a9 net/libnet.a(net.o)
 .debug_abbrev  0x00006cbe      0x1fa net/libnet.a(tftp.o)
 .debug_abbrev  0x00006eb8      0x367 net/libnet.a(bootp.o)
 .debug_abbrev  0x0000721f      0x15d net/libnet.a(rarp.o)
 .debug_abbrev  0x0000737c      0x2a7 net/libnet.a(eth.o)
 .debug_abbrev  0x00007623      0x211 net/libnet.a(rcvr.o)
 .debug_abbrev  0x00007834      0x191 disk/libdisk.a(part.o)
 .debug_abbrev  0x000079c5      0x217 disk/libdisk.a(part_dos.o)
 .debug_abbrev  0x00007bdc      0x2ba disk/libdisk.a(part_efi.o)
 .debug_abbrev  0x00007e96      0x2ff drivers/libdrivers.a(cfi_flash.o)
 .debug_abbrev  0x00008195      0x2dc drivers/libdrivers.a(pci.o)
 .debug_abbrev  0x00008471      0x2ae drivers/libdrivers.a(pci_auto.o)
 .debug_abbrev  0x0000871f      0x1b8 drivers/nand/libnand.a(nand.o)
 .debug_abbrev  0x000088d7      0x3f5 drivers/nand/libnand.a(nand_base.o)
 .debug_abbrev  0x00008ccc       0xfb drivers/nand/libnand.a(nand_ids.o)
 .debug_abbrev  0x00008dc7      0x1c4 drivers/nand/libnand.a(nand_ecc.o)
 .debug_abbrev  0x00008f8b      0x342 drivers/nand/libnand.a(nand_bbt.o)
 .debug_abbrev  0x000092cd      0x2a2 drivers/nand/libnand.a(nand_util.o)
 .debug_abbrev  0x0000956f      0x267 common/libcommon.a(main.o)
 .debug_abbrev  0x000097d6      0x126 common/libcommon.a(cmd_boot.o)
 .debug_abbrev  0x000098fc      0x308 common/libcommon.a(cmd_bootm.o)
 .debug_abbrev  0x00009c04      0x19f common/libcommon.a(cmd_date.o)
 .debug_abbrev  0x00009da3      0x1e2 common/libcommon.a(cmd_eeprom.o)
 .debug_abbrev  0x00009f85      0x229 common/libcommon.a(cmd_ext2.o)
 .debug_abbrev  0x0000a1ae      0x21c common/libcommon.a(cmd_flash.o)
 .debug_abbrev  0x0000a3ca      0x223 common/libcommon.a(cmd_i2c.o)
 .debug_abbrev  0x0000a5ed      0x451 common/libcommon.a(cmd_jffs2.o)
 .debug_abbrev  0x0000aa3e      0x251 common/libcommon.a(cmd_mem.o)
 .debug_abbrev  0x0000ac8f      0x34c common/libcommon.a(cmd_nand.o)
 .debug_abbrev  0x0000afdb      0x1e5 common/libcommon.a(cmd_net.o)
 .debug_abbrev  0x0000b1c0      0x282 common/libcommon.a(cmd_nvedit.o)
 .debug_abbrev  0x0000b442      0x2c9 common/libcommon.a(cmd_pci.o)
 .debug_abbrev  0x0000b70b      0x2df common/libcommon.a(cmd_scsi.o)
 .debug_abbrev  0x0000b9ea      0x2ec common/libcommon.a(command.o)
 .debug_abbrev  0x0000bcd6      0x2cb common/libcommon.a(console.o)
 .debug_abbrev  0x0000bfa1      0x16c common/libcommon.a(devices.o)
 .debug_abbrev  0x0000c10d      0x263 common/libcommon.a(dlmalloc.o)
 .debug_abbrev  0x0000c370      0x1f7 common/libcommon.a(env_common.o)
 .debug_abbrev  0x0000c567      0x1fe common/libcommon.a(env_nand.o)
 .debug_abbrev  0x0000c765      0x121 common/libcommon.a(exports.o)
 .debug_abbrev  0x0000c886      0x1b6 common/libcommon.a(flash.o)
 .debug_abbrev  0x0000ca3c      0x20c common/libcommon.a(lists.o)
 .debug_abbrev  0x0000cc48       0xfb lib_generic/libgeneric.a(crc32.o)
 .debug_abbrev  0x0000cd43       0x4b lib_generic/libgeneric.a(ctype.o)
 .debug_abbrev  0x0000cd8e      0x144 lib_generic/libgeneric.a(display_options.o)
 .debug_abbrev  0x0000ced2      0x20b lib_generic/libgeneric.a(string.o)
 .debug_abbrev  0x0000d0dd      0x23b lib_generic/libgeneric.a(vsprintf.o)
 .debug_abbrev  0x0000d318      0x310 lib_generic/libgeneric.a(zlib.o)
 .debug_abbrev  0x0000d628      0x17f board/mv_feroceon/config_kw/libconfig_kw.a(mvCntmr.o)
 .debug_abbrev  0x0000d7a7      0x160 board/mv_feroceon/config_kw/libconfig_kw.a(mv_dram.o)
 .debug_abbrev  0x0000d907      0x145 board/mv_feroceon/config_kw/libconfig_kw.a(mv_serial.o)
 .debug_abbrev  0x0000da4c      0x105 board/mv_feroceon/config_kw/libconfig_kw.a(mv_rtc.o)
 .debug_abbrev  0x0000db51      0x18e board/mv_feroceon/config_kw/libconfig_kw.a(mv_nand.o)
 .debug_abbrev  0x0000dcdf      0x341 board/mv_feroceon/config_kw/libconfig_kw.a(mv_egiga.o)
 .debug_abbrev  0x0000e020      0x14c board/mv_feroceon/config_kw/libconfig_kw.a(mv_i2c.o)
 .debug_abbrev  0x0000e16c      0x2c7 board/mv_feroceon/config_kw/libconfig_kw.a(mvDramIf.o)
 .debug_abbrev  0x0000e433      0x134 board/mv_feroceon/config_kw/libconfig_kw.a(mvUart.o)
 .debug_abbrev  0x0000e567      0x1f7 board/mv_feroceon/config_kw/libconfig_kw.a(mvSpd.o)
 .debug_abbrev  0x0000e75e      0x1aa cpu/arm926ejs/libarm926ejs.a(cpu.o)
 .debug_abbrev  0x0000e908      0x2d7 lib_arm/libarm.a(armlinux.o)
 .debug_abbrev  0x0000ebdf      0x222 fs/cramfs/libcramfs.a(cramfs.o)
 .debug_abbrev  0x0000ee01      0x197 fs/cramfs/libcramfs.a(uncompress.o)
 .debug_abbrev  0x0000ef98      0x3fe fs/jffs2/libjffs2.a(jffs2_1pass.o)
 .debug_abbrev  0x0000f396       0xc0 fs/jffs2/libjffs2.a(compr_rtime.o)
 .debug_abbrev  0x0000f456       0xeb fs/jffs2/libjffs2.a(compr_rubin.o)
 .debug_abbrev  0x0000f541       0xe5 fs/jffs2/libjffs2.a(compr_zlib.o)
 .debug_abbrev  0x0000f626      0x296 fs/jffs2/libjffs2.a(mini_inflate.o)
 .debug_abbrev  0x0000f8bc      0x2df fs/ext2/libext2fs.a(ext2fs.o)
 .debug_abbrev  0x0000fb9b      0x138 fs/ext2/libext2fs.a(dev.o)
 .debug_abbrev  0x0000fcd3      0x154 rtc/librtc.a(date.o)
 .debug_abbrev  0x0000fe27      0x392 drivers/libdrivers.a(ahci.o)
 .debug_abbrev  0x000101b9       0x14 /opt/devel/proto/marvell/build-eabi/kernel-toolchain/bin/../lib/gcc/arm-none-linux-gnueabi/4.2.1/libgcc.a(_udivsi3.o)
 .debug_abbrev  0x000101cd       0x14 /opt/devel/proto/marvell/build-eabi/kernel-toolchain/bin/../lib/gcc/arm-none-linux-gnueabi/4.2.1/libgcc.a(_divsi3.o)
 .debug_abbrev  0x000101e1       0x14 /opt/devel/proto/marvell/build-eabi/kernel-toolchain/bin/../lib/gcc/arm-none-linux-gnueabi/4.2.1/libgcc.a(_ashrdi3.o)
 .debug_abbrev  0x000101f5       0x14 /opt/devel/proto/marvell/build-eabi/kernel-toolchain/bin/../lib/gcc/arm-none-linux-gnueabi/4.2.1/libgcc.a(_ashldi3.o)
 .debug_abbrev  0x00010209       0x14 /opt/devel/proto/marvell/build-eabi/kernel-toolchain/bin/../lib/gcc/arm-none-linux-gnueabi/4.2.1/libgcc.a(_aeabi_uldivmod.o)
 .debug_abbrev  0x0001021d       0x14 /opt/devel/proto/marvell/build-eabi/kernel-toolchain/bin/../lib/gcc/arm-none-linux-gnueabi/4.2.1/libgcc.a(_dvmd_lnx.o)
 .debug_abbrev  0x00010231       0x6c /opt/devel/proto/marvell/build-eabi/kernel-toolchain/bin/../lib/gcc/arm-none-linux-gnueabi/4.2.1/libgcc.a(bpabi.o)
 .debug_abbrev  0x0001029d      0x1ba /opt/devel/proto/marvell/build-eabi/kernel-toolchain/bin/../lib/gcc/arm-none-linux-gnueabi/4.2.1/libgcc.a(_divdi3.o)
 .debug_abbrev  0x00010457      0x1ab /opt/devel/proto/marvell/build-eabi/kernel-toolchain/bin/../lib/gcc/arm-none-linux-gnueabi/4.2.1/libgcc.a(_udivdi3.o)
 .debug_abbrev  0x00010602       0xc3 /opt/devel/proto/marvell/build-eabi/kernel-toolchain/bin/../lib/gcc/arm-none-linux-gnueabi/4.2.1/libgcc.a(_clz.o)

.debug_info     0x00000000    0x54d3f
 .debug_info    0x00000000     0x1891 board/mv_feroceon/config_kw/libconfig_kw.a(mv_cmd.o)
 .debug_info    0x00001891     0x1908 board/mv_feroceon/config_kw/libconfig_kw.a(mv_main.o)
 .debug_info    0x00003199      0xc43 board/mv_feroceon/config_kw/libconfig_kw.a(mvCtrlEnvLib.o)
 .debug_info    0x00003ddc      0x808 board/mv_feroceon/config_kw/libconfig_kw.a(mvAhbToMbus.o)
 .debug_info    0x000045e4      0x899 board/mv_feroceon/config_kw/libconfig_kw.a(mvCpuIf.o)
 .debug_info    0x00004e7d      0x8b9 board/mv_feroceon/config_kw/libconfig_kw.a(mvSysXor.o)
 .debug_info    0x00005736      0x50c board/mv_feroceon/config_kw/libconfig_kw.a(mvSysDram.o)
 .debug_info    0x00005c42      0x913 board/mv_feroceon/config_kw/libconfig_kw.a(mvSysGbe.o)
 .debug_info    0x00006555      0x82d board/mv_feroceon/config_kw/libconfig_kw.a(mvSysTs.o)
 .debug_info    0x00006d82      0xcce board/mv_feroceon/config_kw/libconfig_kw.a(mvSysPex.o)
 .debug_info    0x00007a50      0x715 board/mv_feroceon/config_kw/libconfig_kw.a(mvSysUsb.o)
 .debug_info    0x00008165      0x727 board/mv_feroceon/config_kw/libconfig_kw.a(mvCpu.o)
 .debug_info    0x0000888c     0x1bdb board/mv_feroceon/config_kw/libconfig_kw.a(mvBoardEnvLib.o)
 .debug_info    0x0000a467      0xc8f board/mv_feroceon/config_kw/libconfig_kw.a(mvBoardEnvSpec.o)
 .debug_info    0x0000b0f6      0xe37 board/mv_feroceon/config_kw/libconfig_kw.a(mv_flash.o)
 .debug_info    0x0000bf2d      0x7c6 board/mv_feroceon/config_kw/libconfig_kw.a(mv_pageTable.o)
 .debug_info    0x0000c6f3      0x2a6 board/mv_feroceon/config_kw/libconfig_kw.a(mv_mon_init.o)
 .debug_info    0x0000c999     0x158f board/mv_feroceon/config_kw/libconfig_kw.a(mv_pci.o)
 .debug_info    0x0000df28     0x2a2b board/mv_feroceon/config_kw/libconfig_kw.a(mv_ide.o)
 .debug_info    0x00010953      0x8ff board/mv_feroceon/config_kw/libconfig_kw.a(mv_protectionUnit.o)
 .debug_info    0x00011252      0x655 board/mv_feroceon/config_kw/libconfig_kw.a(mv_ext2_boot.o)
 .debug_info    0x000118a7      0x4f6 board/mv_feroceon/config_kw/libconfig_kw.a(mvCommon.o)
 .debug_info    0x00011d9d      0x59d board/mv_feroceon/config_kw/libconfig_kw.a(mvOs.o)
 .debug_info    0x0001233a      0x9e8 board/mv_feroceon/config_kw/libconfig_kw.a(mvFlashCom.o)
 .debug_info    0x00012d22     0x42bf board/mv_feroceon/config_kw/libconfig_kw.a(mvSata.o)
 .debug_info    0x00016fe1     0x2006 board/mv_feroceon/config_kw/libconfig_kw.a(mvStorageDev.o)
 .debug_info    0x00018fe7      0xd91 board/mv_feroceon/config_kw/libconfig_kw.a(mvSFlash.o)
 .debug_info    0x00019d78      0x72f board/mv_feroceon/config_kw/libconfig_kw.a(mvEthPhy.o)
 .debug_info    0x0001a4a7      0x3f0 board/mv_feroceon/config_kw/libconfig_kw.a(mvRtc.o)
 .debug_info    0x0001a897      0xa1e board/mv_feroceon/config_kw/libconfig_kw.a(mvTwsi.o)
 .debug_info    0x0001b2b5      0x4db board/mv_feroceon/config_kw/libconfig_kw.a(mvGpp.o)
 .debug_info    0x0001b790      0x5e5 board/mv_feroceon/config_kw/libconfig_kw.a(mvSpi.o)
 .debug_info    0x0001bd75      0x3d2 board/mv_feroceon/config_kw/libconfig_kw.a(mvSpiCmnd.o)
 .debug_info    0x0001c147      0x549 board/mv_feroceon/config_kw/libconfig_kw.a(mvUsb.o)
 .debug_info    0x0001c690      0x6cc board/mv_feroceon/config_kw/libconfig_kw.a(mvXor.o)
 .debug_info    0x0001cd5c     0x206d board/mv_feroceon/config_kw/libconfig_kw.a(mvEth.o)
 .debug_info    0x0001edc9      0x67c board/mv_feroceon/config_kw/libconfig_kw.a(mvPciIf.o)
 .debug_info    0x0001f445      0x927 board/mv_feroceon/config_kw/libconfig_kw.a(mvPex.o)
 .debug_info    0x0001fd6c     0x10ed board/mv_feroceon/config_kw/libconfig_kw.a(mvTsu.o)
 .debug_info    0x00020e59      0x551 board/mv_feroceon/config_kw/libconfig_kw.a(mvMD5.o)
 .debug_info    0x000213aa      0x4b5 board/mv_feroceon/config_kw/libconfig_kw.a(mvSwitch.o)
 .debug_info    0x0002185f      0x6c1 board/mv_feroceon/config_kw/libconfig_kw.a(mvCtrlEnvAddrDec.o)
 .debug_info    0x00021f20      0x73c board/mv_feroceon/config_kw/libconfig_kw.a(mvSysSata.o)
 .debug_info    0x0002265c      0x937 board/mv_feroceon/config_kw/libconfig_kw.a(mvPciUtils.o)
 .debug_info    0x00022f93      0x2b4 board/mv_feroceon/config_kw/libconfig_kw.a(mvOsSata.o)
 .debug_info    0x00023247      0x667 cpu/arm926ejs/libarm926ejs.a(interrupts.o)
 .debug_info    0x000238ae      0x58e lib_arm/libarm.a(board.o)
 .debug_info    0x00023e3c      0x270 lib_arm/libarm.a(cache.o)
 .debug_info    0x000240ac     0x13db net/libnet.a(net.o)
 .debug_info    0x00025487      0x5b8 net/libnet.a(tftp.o)
 .debug_info    0x00025a3f      0xb53 net/libnet.a(bootp.o)
 .debug_info    0x00026592      0x40e net/libnet.a(rarp.o)
 .debug_info    0x000269a0      0x72e net/libnet.a(eth.o)
 .debug_info    0x000270ce      0x6c1 net/libnet.a(rcvr.o)
 .debug_info    0x0002778f      0x5a3 disk/libdisk.a(part.o)
 .debug_info    0x00027d32      0x7e0 disk/libdisk.a(part_dos.o)
 .debug_info    0x00028512      0xb9c disk/libdisk.a(part_efi.o)
 .debug_info    0x000290ae     0x1175 drivers/libdrivers.a(cfi_flash.o)
 .debug_info    0x0002a223     0x11c8 drivers/libdrivers.a(pci.o)
 .debug_info    0x0002b3eb      0x944 drivers/libdrivers.a(pci_auto.o)
 .debug_info    0x0002bd2f      0xe10 drivers/nand/libnand.a(nand.o)
 .debug_info    0x0002cb3f     0x240c drivers/nand/libnand.a(nand_base.o)
 .debug_info    0x0002ef4b      0x31a drivers/nand/libnand.a(nand_ids.o)
 .debug_info    0x0002f265      0x9d0 drivers/nand/libnand.a(nand_ecc.o)
 .debug_info    0x0002fc35     0x19e7 drivers/nand/libnand.a(nand_bbt.o)
 .debug_info    0x0003161c     0x15e1 drivers/nand/libnand.a(nand_util.o)
 .debug_info    0x00032bfd      0x87e common/libcommon.a(main.o)
 .debug_info    0x0003347b      0x3c9 common/libcommon.a(cmd_boot.o)
 .debug_info    0x00033844      0xdd4 common/libcommon.a(cmd_bootm.o)
 .debug_info    0x00034618      0x582 common/libcommon.a(cmd_date.o)
 .debug_info    0x00034b9a      0x611 common/libcommon.a(cmd_eeprom.o)
 .debug_info    0x000351ab      0x817 common/libcommon.a(cmd_ext2.o)
 .debug_info    0x000359c2      0xd3a common/libcommon.a(cmd_flash.o)
 .debug_info    0x000366fc      0x9eb common/libcommon.a(cmd_i2c.o)
 .debug_info    0x000370e7     0x210c common/libcommon.a(cmd_jffs2.o)
 .debug_info    0x000391f3     0x1415 common/libcommon.a(cmd_mem.o)
 .debug_info    0x0003a608     0x18a3 common/libcommon.a(cmd_nand.o)
 .debug_info    0x0003beab      0x75a common/libcommon.a(cmd_net.o)
 .debug_info    0x0003c605      0x92e common/libcommon.a(cmd_nvedit.o)
 .debug_info    0x0003cf33      0x918 common/libcommon.a(cmd_pci.o)
 .debug_info    0x0003d84b      0xe78 common/libcommon.a(cmd_scsi.o)
 .debug_info    0x0003e6c3      0xb5b common/libcommon.a(command.o)
 .debug_info    0x0003f21e      0x965 common/libcommon.a(console.o)
 .debug_info    0x0003fb83      0x4c1 common/libcommon.a(devices.o)
 .debug_info    0x00040044      0xc08 common/libcommon.a(dlmalloc.o)
 .debug_info    0x00040c4c      0x4ab common/libcommon.a(env_common.o)
 .debug_info    0x000410f7      0xa74 common/libcommon.a(env_nand.o)
 .debug_info    0x00041b6b      0x311 common/libcommon.a(exports.o)
 .debug_info    0x00041e7c      0x5ce common/libcommon.a(flash.o)
 .debug_info    0x0004244a      0x6e1 common/libcommon.a(lists.o)
 .debug_info    0x00042b2b      0x33c lib_generic/libgeneric.a(crc32.o)
 .debug_info    0x00042e67       0x52 lib_generic/libgeneric.a(ctype.o)
 .debug_info    0x00042eb9      0x2e2 lib_generic/libgeneric.a(display_options.o)
 .debug_info    0x0004319b      0x8eb lib_generic/libgeneric.a(string.o)
 .debug_info    0x00043a86      0x5f9 lib_generic/libgeneric.a(vsprintf.o)
 .debug_info    0x0004407f     0x1751 lib_generic/libgeneric.a(zlib.o)
 .debug_info    0x000457d0      0x4d4 board/mv_feroceon/config_kw/libconfig_kw.a(mvCntmr.o)
 .debug_info    0x00045ca4      0x332 board/mv_feroceon/config_kw/libconfig_kw.a(mv_dram.o)
 .debug_info    0x00045fd6      0x431 board/mv_feroceon/config_kw/libconfig_kw.a(mv_serial.o)
 .debug_info    0x00046407      0x3ed board/mv_feroceon/config_kw/libconfig_kw.a(mv_rtc.o)
 .debug_info    0x000467f4      0xd88 board/mv_feroceon/config_kw/libconfig_kw.a(mv_nand.o)
 .debug_info    0x0004757c     0x107b board/mv_feroceon/config_kw/libconfig_kw.a(mv_egiga.o)
 .debug_info    0x000485f7      0x514 board/mv_feroceon/config_kw/libconfig_kw.a(mv_i2c.o)
 .debug_info    0x00048b0b     0x1214 board/mv_feroceon/config_kw/libconfig_kw.a(mvDramIf.o)
 .debug_info    0x00049d1f      0x49c board/mv_feroceon/config_kw/libconfig_kw.a(mvUart.o)
 .debug_info    0x0004a1bb      0x9ba board/mv_feroceon/config_kw/libconfig_kw.a(mvSpd.o)
 .debug_info    0x0004ab75      0x4dc cpu/arm926ejs/libarm926ejs.a(cpu.o)
 .debug_info    0x0004b051      0xe9c lib_arm/libarm.a(armlinux.o)
 .debug_info    0x0004beed      0xa4d fs/cramfs/libcramfs.a(cramfs.o)
 .debug_info    0x0004c93a      0x534 fs/cramfs/libcramfs.a(uncompress.o)
 .debug_info    0x0004ce6e     0x23bf fs/jffs2/libjffs2.a(jffs2_1pass.o)
 .debug_info    0x0004f22d      0x13e fs/jffs2/libjffs2.a(compr_rtime.o)
 .debug_info    0x0004f36b      0x205 fs/jffs2/libjffs2.a(compr_rubin.o)
 .debug_info    0x0004f570      0x2a7 fs/jffs2/libjffs2.a(compr_zlib.o)
 .debug_info    0x0004f817      0x7bf fs/jffs2/libjffs2.a(mini_inflate.o)
 .debug_info    0x0004ffd6      0xfa3 fs/ext2/libext2fs.a(ext2fs.o)
 .debug_info    0x00050f79      0x524 fs/ext2/libext2fs.a(dev.o)
 .debug_info    0x0005149d      0x434 rtc/librtc.a(date.o)
 .debug_info    0x000518d1     0x1811 drivers/libdrivers.a(ahci.o)
 .debug_info    0x000530e2      0x106 /opt/devel/proto/marvell/build-eabi/kernel-toolchain/bin/../lib/gcc/arm-none-linux-gnueabi/4.2.1/libgcc.a(_udivsi3.o)
 .debug_info    0x000531e8      0x106 /opt/devel/proto/marvell/build-eabi/kernel-toolchain/bin/../lib/gcc/arm-none-linux-gnueabi/4.2.1/libgcc.a(_divsi3.o)
 .debug_info    0x000532ee      0x106 /opt/devel/proto/marvell/build-eabi/kernel-toolchain/bin/../lib/gcc/arm-none-linux-gnueabi/4.2.1/libgcc.a(_ashrdi3.o)
 .debug_info    0x000533f4      0x106 /opt/devel/proto/marvell/build-eabi/kernel-toolchain/bin/../lib/gcc/arm-none-linux-gnueabi/4.2.1/libgcc.a(_ashldi3.o)
 .debug_info    0x000534fa      0x100 /opt/devel/proto/marvell/build-eabi/kernel-toolchain/bin/../lib/gcc/arm-none-linux-gnueabi/4.2.1/libgcc.a(_aeabi_uldivmod.o)
 .debug_info    0x000535fa      0x106 /opt/devel/proto/marvell/build-eabi/kernel-toolchain/bin/../lib/gcc/arm-none-linux-gnueabi/4.2.1/libgcc.a(_dvmd_lnx.o)
 .debug_info    0x00053700       0xec /opt/devel/proto/marvell/build-eabi/kernel-toolchain/bin/../lib/gcc/arm-none-linux-gnueabi/4.2.1/libgcc.a(bpabi.o)
 .debug_info    0x000537ec      0x92b /opt/devel/proto/marvell/build-eabi/kernel-toolchain/bin/../lib/gcc/arm-none-linux-gnueabi/4.2.1/libgcc.a(_divdi3.o)
 .debug_info    0x00054117      0x8e5 /opt/devel/proto/marvell/build-eabi/kernel-toolchain/bin/../lib/gcc/arm-none-linux-gnueabi/4.2.1/libgcc.a(_udivdi3.o)
 .debug_info    0x000549fc      0x343 /opt/devel/proto/marvell/build-eabi/kernel-toolchain/bin/../lib/gcc/arm-none-linux-gnueabi/4.2.1/libgcc.a(_clz.o)

.debug_line     0x00000000    0x18d01
 .debug_line    0x00000000      0x501 board/mv_feroceon/config_kw/libconfig_kw.a(mv_cmd.o)
 .debug_line    0x00000501      0x93f board/mv_feroceon/config_kw/libconfig_kw.a(mv_main.o)
 .debug_line    0x00000e40      0x4c5 board/mv_feroceon/config_kw/libconfig_kw.a(mvCtrlEnvLib.o)
 .debug_line    0x00001305      0x416 board/mv_feroceon/config_kw/libconfig_kw.a(mvAhbToMbus.o)
 .debug_line    0x0000171b      0x443 board/mv_feroceon/config_kw/libconfig_kw.a(mvCpuIf.o)
 .debug_line    0x00001b5e      0x3a2 board/mv_feroceon/config_kw/libconfig_kw.a(mvSysXor.o)
 .debug_line    0x00001f00      0x2ed board/mv_feroceon/config_kw/libconfig_kw.a(mvSysDram.o)
 .debug_line    0x000021ed      0x3b8 board/mv_feroceon/config_kw/libconfig_kw.a(mvSysGbe.o)
 .debug_line    0x000025a5      0x3bc board/mv_feroceon/config_kw/libconfig_kw.a(mvSysTs.o)
 .debug_line    0x00002961      0x51d board/mv_feroceon/config_kw/libconfig_kw.a(mvSysPex.o)
 .debug_line    0x00002e7e      0x361 board/mv_feroceon/config_kw/libconfig_kw.a(mvSysUsb.o)
 .debug_line    0x000031df      0x266 board/mv_feroceon/config_kw/libconfig_kw.a(mvCpu.o)
 .debug_line    0x00003445      0x805 board/mv_feroceon/config_kw/libconfig_kw.a(mvBoardEnvLib.o)
 .debug_line    0x00003c4a      0x19b board/mv_feroceon/config_kw/libconfig_kw.a(mvBoardEnvSpec.o)
 .debug_line    0x00003de5      0x4e3 board/mv_feroceon/config_kw/libconfig_kw.a(mv_flash.o)
 .debug_line    0x000042c8      0x2cd board/mv_feroceon/config_kw/libconfig_kw.a(mv_pageTable.o)
 .debug_line    0x00004595      0x158 board/mv_feroceon/config_kw/libconfig_kw.a(mv_mon_init.o)
 .debug_line    0x000046ed      0x597 board/mv_feroceon/config_kw/libconfig_kw.a(mv_pci.o)
 .debug_line    0x00004c84      0x79b board/mv_feroceon/config_kw/libconfig_kw.a(mv_ide.o)
 .debug_line    0x0000541f      0x44f board/mv_feroceon/config_kw/libconfig_kw.a(mv_protectionUnit.o)
 .debug_line    0x0000586e      0x1fd board/mv_feroceon/config_kw/libconfig_kw.a(mv_ext2_boot.o)
 .debug_line    0x00005a6b      0x1ca board/mv_feroceon/config_kw/libconfig_kw.a(mvCommon.o)
 .debug_line    0x00005c35      0x1d1 board/mv_feroceon/config_kw/libconfig_kw.a(mvOs.o)
 .debug_line    0x00005e06      0x32b board/mv_feroceon/config_kw/libconfig_kw.a(mvFlashCom.o)
 .debug_line    0x00006131     0x1176 board/mv_feroceon/config_kw/libconfig_kw.a(mvSata.o)
 .debug_line    0x000072a7      0x532 board/mv_feroceon/config_kw/libconfig_kw.a(mvStorageDev.o)
 .debug_line    0x000077d9      0x376 board/mv_feroceon/config_kw/libconfig_kw.a(mvSFlash.o)
 .debug_line    0x00007b4f      0x35b board/mv_feroceon/config_kw/libconfig_kw.a(mvEthPhy.o)
 .debug_line    0x00007eaa      0x263 board/mv_feroceon/config_kw/libconfig_kw.a(mvRtc.o)
 .debug_line    0x0000810d      0x33d board/mv_feroceon/config_kw/libconfig_kw.a(mvTwsi.o)
 .debug_line    0x0000844a      0x22a board/mv_feroceon/config_kw/libconfig_kw.a(mvGpp.o)
 .debug_line    0x00008674      0x2c5 board/mv_feroceon/config_kw/libconfig_kw.a(mvSpi.o)
 .debug_line    0x00008939      0x1ba board/mv_feroceon/config_kw/libconfig_kw.a(mvSpiCmnd.o)
 .debug_line    0x00008af3      0x31d board/mv_feroceon/config_kw/libconfig_kw.a(mvUsb.o)
 .debug_line    0x00008e10      0x2fb board/mv_feroceon/config_kw/libconfig_kw.a(mvXor.o)
 .debug_line    0x0000910b      0xb6c board/mv_feroceon/config_kw/libconfig_kw.a(mvEth.o)
 .debug_line    0x00009c77      0x299 board/mv_feroceon/config_kw/libconfig_kw.a(mvPciIf.o)
 .debug_line    0x00009f10      0x3bd board/mv_feroceon/config_kw/libconfig_kw.a(mvPex.o)
 .debug_line    0x0000a2cd      0x536 board/mv_feroceon/config_kw/libconfig_kw.a(mvTsu.o)
 .debug_line    0x0000a803      0x593 board/mv_feroceon/config_kw/libconfig_kw.a(mvMD5.o)
 .debug_line    0x0000ad96      0x277 board/mv_feroceon/config_kw/libconfig_kw.a(mvSwitch.o)
 .debug_line    0x0000b00d      0x289 board/mv_feroceon/config_kw/libconfig_kw.a(mvCtrlEnvAddrDec.o)
 .debug_line    0x0000b296      0x351 board/mv_feroceon/config_kw/libconfig_kw.a(mvSysSata.o)
 .debug_line    0x0000b5e7      0x39f board/mv_feroceon/config_kw/libconfig_kw.a(mvPciUtils.o)
 .debug_line    0x0000b986      0x185 board/mv_feroceon/config_kw/libconfig_kw.a(mvOsSata.o)
 .debug_line    0x0000bb0b      0x2c1 cpu/arm926ejs/libarm926ejs.a(interrupts.o)
 .debug_line    0x0000bdcc      0x221 lib_arm/libarm.a(board.o)
 .debug_line    0x0000bfed       0xdc lib_arm/libarm.a(cache.o)
 .debug_line    0x0000c0c9      0x4d6 net/libnet.a(net.o)
 .debug_line    0x0000c59f      0x298 net/libnet.a(tftp.o)
 .debug_line    0x0000c837      0x380 net/libnet.a(bootp.o)
 .debug_line    0x0000cbb7      0x169 net/libnet.a(rarp.o)
 .debug_line    0x0000cd20      0x1f2 net/libnet.a(eth.o)
 .debug_line    0x0000cf12      0x2a2 net/libnet.a(rcvr.o)
 .debug_line    0x0000d1b4      0x1b3 disk/libdisk.a(part.o)
 .debug_line    0x0000d367      0x1cd disk/libdisk.a(part_dos.o)
 .debug_line    0x0000d534      0x233 disk/libdisk.a(part_efi.o)
 .debug_line    0x0000d767      0x4c7 drivers/libdrivers.a(cfi_flash.o)
 .debug_line    0x0000dc2e      0x27c drivers/libdrivers.a(pci.o)
 .debug_line    0x0000deaa      0x20e drivers/libdrivers.a(pci_auto.o)
 .debug_line    0x0000e0b8      0x1cc drivers/nand/libnand.a(nand.o)
 .debug_line    0x0000e284      0x7c0 drivers/nand/libnand.a(nand_base.o)
 .debug_line    0x0000ea44      0x11c drivers/nand/libnand.a(nand_ids.o)
 .debug_line    0x0000eb60      0x1fc drivers/nand/libnand.a(nand_ecc.o)
 .debug_line    0x0000ed5c      0x448 drivers/nand/libnand.a(nand_bbt.o)
 .debug_line    0x0000f1a4      0x3a0 drivers/nand/libnand.a(nand_util.o)
 .debug_line    0x0000f544      0x273 common/libcommon.a(main.o)
 .debug_line    0x0000f7b7      0x13a common/libcommon.a(cmd_boot.o)
 .debug_line    0x0000f8f1      0x31a common/libcommon.a(cmd_bootm.o)
 .debug_line    0x0000fc0b      0x17b common/libcommon.a(cmd_date.o)
 .debug_line    0x0000fd86      0x1ae common/libcommon.a(cmd_eeprom.o)
 .debug_line    0x0000ff34      0x220 common/libcommon.a(cmd_ext2.o)
 .debug_line    0x00010154      0x3a8 common/libcommon.a(cmd_flash.o)
 .debug_line    0x000104fc      0x323 common/libcommon.a(cmd_i2c.o)
 .debug_line    0x0001081f      0x731 common/libcommon.a(cmd_jffs2.o)
 .debug_line    0x00010f50      0x3a0 common/libcommon.a(cmd_mem.o)
 .debug_line    0x000112f0      0x435 common/libcommon.a(cmd_nand.o)
 .debug_line    0x00011725      0x1a1 common/libcommon.a(cmd_net.o)
 .debug_line    0x000118c6      0x2d0 common/libcommon.a(cmd_nvedit.o)
 .debug_line    0x00011b96      0x2d3 common/libcommon.a(cmd_pci.o)
 .debug_line    0x00011e69      0x440 common/libcommon.a(cmd_scsi.o)
 .debug_line    0x000122a9      0x27f common/libcommon.a(command.o)
 .debug_line    0x00012528      0x2f6 common/libcommon.a(console.o)
 .debug_line    0x0001281e      0x15c common/libcommon.a(devices.o)
 .debug_line    0x0001297a      0x3a5 common/libcommon.a(dlmalloc.o)
 .debug_line    0x00012d1f      0x1a4 common/libcommon.a(env_common.o)
 .debug_line    0x00012ec3      0x233 common/libcommon.a(env_nand.o)
 .debug_line    0x000130f6      0x138 common/libcommon.a(exports.o)
 .debug_line    0x0001322e      0x202 common/libcommon.a(flash.o)
 .debug_line    0x00013430      0x1bd common/libcommon.a(lists.o)
 .debug_line    0x000135ed      0x145 lib_generic/libgeneric.a(crc32.o)
 .debug_line    0x00013732       0x28 lib_generic/libgeneric.a(ctype.o)
 .debug_line    0x0001375a      0x106 lib_generic/libgeneric.a(display_options.o)
 .debug_line    0x00013860      0x1dd lib_generic/libgeneric.a(string.o)
 .debug_line    0x00013a3d      0x251 lib_generic/libgeneric.a(vsprintf.o)
 .debug_line    0x00013c8e      0x684 lib_generic/libgeneric.a(zlib.o)
 .debug_line    0x00014312      0x26d board/mv_feroceon/config_kw/libconfig_kw.a(mvCntmr.o)
 .debug_line    0x0001457f      0x22b board/mv_feroceon/config_kw/libconfig_kw.a(mv_dram.o)
 .debug_line    0x000147aa      0x211 board/mv_feroceon/config_kw/libconfig_kw.a(mv_serial.o)
 .debug_line    0x000149bb      0x257 board/mv_feroceon/config_kw/libconfig_kw.a(mv_rtc.o)
 .debug_line    0x00014c12      0x218 board/mv_feroceon/config_kw/libconfig_kw.a(mv_nand.o)
 .debug_line    0x00014e2a      0x561 board/mv_feroceon/config_kw/libconfig_kw.a(mv_egiga.o)
 .debug_line    0x0001538b      0x26e board/mv_feroceon/config_kw/libconfig_kw.a(mv_i2c.o)
 .debug_line    0x000155f9      0x629 board/mv_feroceon/config_kw/libconfig_kw.a(mvDramIf.o)
 .debug_line    0x00015c22      0x1b8 board/mv_feroceon/config_kw/libconfig_kw.a(mvUart.o)
 .debug_line    0x00015dda      0x54d board/mv_feroceon/config_kw/libconfig_kw.a(mvSpd.o)
 .debug_line    0x00016327      0x16f cpu/arm926ejs/libarm926ejs.a(cpu.o)
 .debug_line    0x00016496      0x2f7 lib_arm/libarm.a(armlinux.o)
 .debug_line    0x0001678d      0x2bb fs/cramfs/libcramfs.a(cramfs.o)
 .debug_line    0x00016a48      0x167 fs/cramfs/libcramfs.a(uncompress.o)
 .debug_line    0x00016baf      0x608 fs/jffs2/libjffs2.a(jffs2_1pass.o)
 .debug_line    0x000171b7       0xa6 fs/jffs2/libjffs2.a(compr_rtime.o)
 .debug_line    0x0001725d       0xd6 fs/jffs2/libjffs2.a(compr_rubin.o)
 .debug_line    0x00017333       0xf0 fs/jffs2/libjffs2.a(compr_zlib.o)
 .debug_line    0x00017423      0x229 fs/jffs2/libjffs2.a(mini_inflate.o)
 .debug_line    0x0001764c      0x2d1 fs/ext2/libext2fs.a(ext2fs.o)
 .debug_line    0x0001791d      0x16b fs/ext2/libext2fs.a(dev.o)
 .debug_line    0x00017a88      0x169 rtc/librtc.a(date.o)
 .debug_line    0x00017bf1      0x3c7 drivers/libdrivers.a(ahci.o)
 .debug_line    0x00017fb8       0xca /opt/devel/proto/marvell/build-eabi/kernel-toolchain/bin/../lib/gcc/arm-none-linux-gnueabi/4.2.1/libgcc.a(_udivsi3.o)
 .debug_line    0x00018082       0xd6 /opt/devel/proto/marvell/build-eabi/kernel-toolchain/bin/../lib/gcc/arm-none-linux-gnueabi/4.2.1/libgcc.a(_divsi3.o)
 .debug_line    0x00018158       0xb0 /opt/devel/proto/marvell/build-eabi/kernel-toolchain/bin/../lib/gcc/arm-none-linux-gnueabi/4.2.1/libgcc.a(_ashrdi3.o)
 .debug_line    0x00018208       0xb0 /opt/devel/proto/marvell/build-eabi/kernel-toolchain/bin/../lib/gcc/arm-none-linux-gnueabi/4.2.1/libgcc.a(_ashldi3.o)
 .debug_line    0x000182b8       0xaa /opt/devel/proto/marvell/build-eabi/kernel-toolchain/bin/../lib/gcc/arm-none-linux-gnueabi/4.2.1/libgcc.a(_aeabi_uldivmod.o)
 .debug_line    0x00018362       0xb0 /opt/devel/proto/marvell/build-eabi/kernel-toolchain/bin/../lib/gcc/arm-none-linux-gnueabi/4.2.1/libgcc.a(_dvmd_lnx.o)
 .debug_line    0x00018412       0xb6 /opt/devel/proto/marvell/build-eabi/kernel-toolchain/bin/../lib/gcc/arm-none-linux-gnueabi/4.2.1/libgcc.a(bpabi.o)
 .debug_line    0x000184c8      0x30c /opt/devel/proto/marvell/build-eabi/kernel-toolchain/bin/../lib/gcc/arm-none-linux-gnueabi/4.2.1/libgcc.a(_divdi3.o)
 .debug_line    0x000187d4      0x2f8 /opt/devel/proto/marvell/build-eabi/kernel-toolchain/bin/../lib/gcc/arm-none-linux-gnueabi/4.2.1/libgcc.a(_udivdi3.o)
 .debug_line    0x00018acc      0x235 /opt/devel/proto/marvell/build-eabi/kernel-toolchain/bin/../lib/gcc/arm-none-linux-gnueabi/4.2.1/libgcc.a(_clz.o)

.debug_frame    0x00000000     0xaeac
 .debug_frame   0x00000000      0x2b4 board/mv_feroceon/config_kw/libconfig_kw.a(mv_cmd.o)
 .debug_frame   0x000002b4      0x40c board/mv_feroceon/config_kw/libconfig_kw.a(mv_main.o)
 .debug_frame   0x000006c0      0x394 board/mv_feroceon/config_kw/libconfig_kw.a(mvCtrlEnvLib.o)
 .debug_frame   0x00000a54      0x164 board/mv_feroceon/config_kw/libconfig_kw.a(mvAhbToMbus.o)
 .debug_frame   0x00000bb8      0x1d4 board/mv_feroceon/config_kw/libconfig_kw.a(mvCpuIf.o)
 .debug_frame   0x00000d8c      0x154 board/mv_feroceon/config_kw/libconfig_kw.a(mvSysXor.o)
 .debug_frame   0x00000ee0       0xc0 board/mv_feroceon/config_kw/libconfig_kw.a(mvSysDram.o)
 .debug_frame   0x00000fa0      0x184 board/mv_feroceon/config_kw/libconfig_kw.a(mvSysGbe.o)
 .debug_frame   0x00001124      0x12c board/mv_feroceon/config_kw/libconfig_kw.a(mvSysTs.o)
 .debug_frame   0x00001250      0x248 board/mv_feroceon/config_kw/libconfig_kw.a(mvSysPex.o)
 .debug_frame   0x00001498       0xe0 board/mv_feroceon/config_kw/libconfig_kw.a(mvSysUsb.o)
 .debug_frame   0x00001578       0xa8 board/mv_feroceon/config_kw/libconfig_kw.a(mvCpu.o)
 .debug_frame   0x00001620      0x7f8 board/mv_feroceon/config_kw/libconfig_kw.a(mvBoardEnvLib.o)
 .debug_frame   0x00001e18      0x234 board/mv_feroceon/config_kw/libconfig_kw.a(mv_flash.o)
 .debug_frame   0x0000204c       0xf8 board/mv_feroceon/config_kw/libconfig_kw.a(mv_pageTable.o)
 .debug_frame   0x00002144       0x58 board/mv_feroceon/config_kw/libconfig_kw.a(mv_mon_init.o)
 .debug_frame   0x0000219c      0x1ac board/mv_feroceon/config_kw/libconfig_kw.a(mv_pci.o)
 .debug_frame   0x00002348      0x1cc board/mv_feroceon/config_kw/libconfig_kw.a(mv_ide.o)
 .debug_frame   0x00002514      0x144 board/mv_feroceon/config_kw/libconfig_kw.a(mv_protectionUnit.o)
 .debug_frame   0x00002658       0x3c board/mv_feroceon/config_kw/libconfig_kw.a(mv_ext2_boot.o)
 .debug_frame   0x00002694      0x13c board/mv_feroceon/config_kw/libconfig_kw.a(mvCommon.o)
 .debug_frame   0x000027d0      0x178 board/mv_feroceon/config_kw/libconfig_kw.a(mvOs.o)
 .debug_frame   0x00002948      0x234 board/mv_feroceon/config_kw/libconfig_kw.a(mvFlashCom.o)
 .debug_frame   0x00002b7c      0xa88 board/mv_feroceon/config_kw/libconfig_kw.a(mvSata.o)
 .debug_frame   0x00003604      0x400 board/mv_feroceon/config_kw/libconfig_kw.a(mvStorageDev.o)
 .debug_frame   0x00003a04      0x290 board/mv_feroceon/config_kw/libconfig_kw.a(mvSFlash.o)
 .debug_frame   0x00003c94      0x228 board/mv_feroceon/config_kw/libconfig_kw.a(mvEthPhy.o)
 .debug_frame   0x00003ebc       0x84 board/mv_feroceon/config_kw/libconfig_kw.a(mvRtc.o)
 .debug_frame   0x00003f40      0x1c4 board/mv_feroceon/config_kw/libconfig_kw.a(mvTwsi.o)
 .debug_frame   0x00004104      0x118 board/mv_feroceon/config_kw/libconfig_kw.a(mvGpp.o)
 .debug_frame   0x0000421c      0x15c board/mv_feroceon/config_kw/libconfig_kw.a(mvSpi.o)
 .debug_frame   0x00004378       0x88 board/mv_feroceon/config_kw/libconfig_kw.a(mvSpiCmnd.o)
 .debug_frame   0x00004400       0xf8 board/mv_feroceon/config_kw/libconfig_kw.a(mvUsb.o)
 .debug_frame   0x000044f8      0x174 board/mv_feroceon/config_kw/libconfig_kw.a(mvXor.o)
 .debug_frame   0x0000466c      0x6a4 board/mv_feroceon/config_kw/libconfig_kw.a(mvEth.o)
 .debug_frame   0x00004d10      0x194 board/mv_feroceon/config_kw/libconfig_kw.a(mvPciIf.o)
 .debug_frame   0x00004ea4      0x25c board/mv_feroceon/config_kw/libconfig_kw.a(mvPex.o)
 .debug_frame   0x00005100      0x40c board/mv_feroceon/config_kw/libconfig_kw.a(mvTsu.o)
 .debug_frame   0x0000550c       0xf0 board/mv_feroceon/config_kw/libconfig_kw.a(mvMD5.o)
 .debug_frame   0x000055fc      0x114 board/mv_feroceon/config_kw/libconfig_kw.a(mvSwitch.o)
 .debug_frame   0x00005710      0x104 board/mv_feroceon/config_kw/libconfig_kw.a(mvCtrlEnvAddrDec.o)
 .debug_frame   0x00005814       0xb8 board/mv_feroceon/config_kw/libconfig_kw.a(mvSysSata.o)
 .debug_frame   0x000058cc       0x88 board/mv_feroceon/config_kw/libconfig_kw.a(mvPciUtils.o)
 .debug_frame   0x00005954       0x30 board/mv_feroceon/config_kw/libconfig_kw.a(mvOsSata.o)
 .debug_frame   0x00005984      0x298 cpu/arm926ejs/libarm926ejs.a(interrupts.o)
 .debug_frame   0x00005c1c       0xa8 lib_arm/libarm.a(board.o)
 .debug_frame   0x00005cc4       0x20 lib_arm/libarm.a(cache.o)
 .debug_frame   0x00005ce4      0x3dc net/libnet.a(net.o)
 .debug_frame   0x000060c0       0xb4 net/libnet.a(tftp.o)
 .debug_frame   0x00006174      0x1b8 net/libnet.a(bootp.o)
 .debug_frame   0x0000632c       0x78 net/libnet.a(rarp.o)
 .debug_frame   0x000063a4      0x1b0 net/libnet.a(eth.o)
 .debug_frame   0x00006554       0xf4 net/libnet.a(rcvr.o)
 .debug_frame   0x00006648       0xc8 disk/libdisk.a(part.o)
 .debug_frame   0x00006710       0xec disk/libdisk.a(part_dos.o)
 .debug_frame   0x000067fc       0xf8 disk/libdisk.a(part_efi.o)
 .debug_frame   0x000068f4      0x33c drivers/libdrivers.a(cfi_flash.o)
 .debug_frame   0x00006c30      0x3d4 drivers/libdrivers.a(pci.o)
 .debug_frame   0x00007004       0xc4 drivers/libdrivers.a(pci_auto.o)
 .debug_frame   0x000070c8       0x34 drivers/nand/libnand.a(nand.o)
 .debug_frame   0x000070fc      0x4d4 drivers/nand/libnand.a(nand_base.o)
 .debug_frame   0x000075d0       0x5c drivers/nand/libnand.a(nand_ecc.o)
 .debug_frame   0x0000762c      0x1c8 drivers/nand/libnand.a(nand_bbt.o)
 .debug_frame   0x000077f4      0x144 drivers/nand/libnand.a(nand_util.o)
 .debug_frame   0x00007938       0xe4 common/libcommon.a(main.o)
 .debug_frame   0x00007a1c       0x38 common/libcommon.a(cmd_boot.o)
 .debug_frame   0x00007a54       0xd8 common/libcommon.a(cmd_bootm.o)
 .debug_frame   0x00007b2c       0x6c common/libcommon.a(cmd_date.o)
 .debug_frame   0x00007b98       0xb4 common/libcommon.a(cmd_eeprom.o)
 .debug_frame   0x00007c4c       0xb4 common/libcommon.a(cmd_ext2.o)
 .debug_frame   0x00007d00      0x158 common/libcommon.a(cmd_flash.o)
 .debug_frame   0x00007e58      0x160 common/libcommon.a(cmd_i2c.o)
 .debug_frame   0x00007fb8      0x380 common/libcommon.a(cmd_jffs2.o)
 .debug_frame   0x00008338      0x214 common/libcommon.a(cmd_mem.o)
 .debug_frame   0x0000854c      0x110 common/libcommon.a(cmd_nand.o)
 .debug_frame   0x0000865c       0x9c common/libcommon.a(cmd_net.o)
 .debug_frame   0x000086f8      0x148 common/libcommon.a(cmd_nvedit.o)
 .debug_frame   0x00008840      0x104 common/libcommon.a(cmd_pci.o)
 .debug_frame   0x00008944      0x1e4 common/libcommon.a(cmd_scsi.o)
 .debug_frame   0x00008b28      0x140 common/libcommon.a(command.o)
 .debug_frame   0x00008c68      0x264 common/libcommon.a(console.o)
 .debug_frame   0x00008ecc       0x70 common/libcommon.a(devices.o)
 .debug_frame   0x00008f3c      0x15c common/libcommon.a(dlmalloc.o)
 .debug_frame   0x00009098       0xc8 common/libcommon.a(env_common.o)
 .debug_frame   0x00009160       0xdc common/libcommon.a(env_nand.o)
 .debug_frame   0x0000923c       0x54 common/libcommon.a(exports.o)
 .debug_frame   0x00009290       0x90 common/libcommon.a(flash.o)
 .debug_frame   0x00009320      0x16c common/libcommon.a(lists.o)
 .debug_frame   0x0000948c       0x58 lib_generic/libgeneric.a(crc32.o)
 .debug_frame   0x000094e4       0x5c lib_generic/libgeneric.a(display_options.o)
 .debug_frame   0x00009540      0x244 lib_generic/libgeneric.a(string.o)
 .debug_frame   0x00009784      0x100 lib_generic/libgeneric.a(vsprintf.o)
 .debug_frame   0x00009884      0x248 lib_generic/libgeneric.a(zlib.o)
 .debug_frame   0x00009acc      0x108 board/mv_feroceon/config_kw/libconfig_kw.a(mvCntmr.o)
 .debug_frame   0x00009bd4       0x78 board/mv_feroceon/config_kw/libconfig_kw.a(mv_dram.o)
 .debug_frame   0x00009c4c       0xd0 board/mv_feroceon/config_kw/libconfig_kw.a(mv_serial.o)
 .debug_frame   0x00009d1c       0x64 board/mv_feroceon/config_kw/libconfig_kw.a(mv_rtc.o)
 .debug_frame   0x00009d80       0x30 board/mv_feroceon/config_kw/libconfig_kw.a(mv_nand.o)
 .debug_frame   0x00009db0       0xf8 board/mv_feroceon/config_kw/libconfig_kw.a(mv_egiga.o)
 .debug_frame   0x00009ea8       0x98 board/mv_feroceon/config_kw/libconfig_kw.a(mv_i2c.o)
 .debug_frame   0x00009f40      0x13c board/mv_feroceon/config_kw/libconfig_kw.a(mvDramIf.o)
 .debug_frame   0x0000a07c       0x50 board/mv_feroceon/config_kw/libconfig_kw.a(mvUart.o)
 .debug_frame   0x0000a0cc       0xd4 board/mv_feroceon/config_kw/libconfig_kw.a(mvSpd.o)
 .debug_frame   0x0000a1a0      0x140 cpu/arm926ejs/libarm926ejs.a(cpu.o)
 .debug_frame   0x0000a2e0      0x124 lib_arm/libarm.a(armlinux.o)
 .debug_frame   0x0000a404      0x154 fs/cramfs/libcramfs.a(cramfs.o)
 .debug_frame   0x0000a558       0x98 fs/cramfs/libcramfs.a(uncompress.o)
 .debug_frame   0x0000a5f0      0x28c fs/jffs2/libjffs2.a(jffs2_1pass.o)
 .debug_frame   0x0000a87c       0x34 fs/jffs2/libjffs2.a(compr_rtime.o)
 .debug_frame   0x0000a8b0       0x54 fs/jffs2/libjffs2.a(compr_rubin.o)
 .debug_frame   0x0000a904       0x20 fs/jffs2/libjffs2.a(compr_zlib.o)
 .debug_frame   0x0000a924      0x108 fs/jffs2/libjffs2.a(mini_inflate.o)
 .debug_frame   0x0000aa2c      0x184 fs/ext2/libext2fs.a(ext2fs.o)
 .debug_frame   0x0000abb0       0x5c fs/ext2/libext2fs.a(dev.o)
 .debug_frame   0x0000ac0c       0x8c rtc/librtc.a(date.o)
 .debug_frame   0x0000ac98       0xdc drivers/libdrivers.a(ahci.o)
 .debug_frame   0x0000ad74       0x28 /opt/devel/proto/marvell/build-eabi/kernel-toolchain/bin/../lib/gcc/arm-none-linux-gnueabi/4.2.1/libgcc.a(_udivsi3.o)
 .debug_frame   0x0000ad9c       0x28 /opt/devel/proto/marvell/build-eabi/kernel-toolchain/bin/../lib/gcc/arm-none-linux-gnueabi/4.2.1/libgcc.a(_divsi3.o)
 .debug_frame   0x0000adc4       0x70 /opt/devel/proto/marvell/build-eabi/kernel-toolchain/bin/../lib/gcc/arm-none-linux-gnueabi/4.2.1/libgcc.a(bpabi.o)
 .debug_frame   0x0000ae34       0x3c /opt/devel/proto/marvell/build-eabi/kernel-toolchain/bin/../lib/gcc/arm-none-linux-gnueabi/4.2.1/libgcc.a(_divdi3.o)
 .debug_frame   0x0000ae70       0x3c /opt/devel/proto/marvell/build-eabi/kernel-toolchain/bin/../lib/gcc/arm-none-linux-gnueabi/4.2.1/libgcc.a(_udivdi3.o)

.debug_loc      0x00000000    0x3379b
 .debug_loc     0x00000000      0xf77 board/mv_feroceon/config_kw/libconfig_kw.a(mv_cmd.o)
 .debug_loc     0x00000f77      0x8c8 board/mv_feroceon/config_kw/libconfig_kw.a(mv_main.o)
 .debug_loc     0x0000183f      0xa39 board/mv_feroceon/config_kw/libconfig_kw.a(mvCtrlEnvLib.o)
 .debug_loc     0x00002278      0x3fd board/mv_feroceon/config_kw/libconfig_kw.a(mvAhbToMbus.o)
 .debug_loc     0x00002675      0x540 board/mv_feroceon/config_kw/libconfig_kw.a(mvCpuIf.o)
 .debug_loc     0x00002bb5      0x45f board/mv_feroceon/config_kw/libconfig_kw.a(mvSysXor.o)
 .debug_loc     0x00003014      0x24f board/mv_feroceon/config_kw/libconfig_kw.a(mvSysDram.o)
 .debug_loc     0x00003263      0x46e board/mv_feroceon/config_kw/libconfig_kw.a(mvSysGbe.o)
 .debug_loc     0x000036d1      0x2a4 board/mv_feroceon/config_kw/libconfig_kw.a(mvSysTs.o)
 .debug_loc     0x00003975      0x83e board/mv_feroceon/config_kw/libconfig_kw.a(mvSysPex.o)
 .debug_loc     0x000041b3      0x2bd board/mv_feroceon/config_kw/libconfig_kw.a(mvSysUsb.o)
 .debug_loc     0x00004470      0x29b board/mv_feroceon/config_kw/libconfig_kw.a(mvCpu.o)
 .debug_loc     0x0000470b     0x1506 board/mv_feroceon/config_kw/libconfig_kw.a(mvBoardEnvLib.o)
 .debug_loc     0x00005c11      0x909 board/mv_feroceon/config_kw/libconfig_kw.a(mv_flash.o)
 .debug_loc     0x0000651a      0x2e7 board/mv_feroceon/config_kw/libconfig_kw.a(mv_pageTable.o)
 .debug_loc     0x00006801       0x54 board/mv_feroceon/config_kw/libconfig_kw.a(mv_mon_init.o)
 .debug_loc     0x00006855      0x762 board/mv_feroceon/config_kw/libconfig_kw.a(mv_pci.o)
 .debug_loc     0x00006fb7     0x10b4 board/mv_feroceon/config_kw/libconfig_kw.a(mv_ide.o)
 .debug_loc     0x0000806b      0x41e board/mv_feroceon/config_kw/libconfig_kw.a(mv_protectionUnit.o)
 .debug_loc     0x00008489      0x191 board/mv_feroceon/config_kw/libconfig_kw.a(mv_ext2_boot.o)
 .debug_loc     0x0000861a      0x319 board/mv_feroceon/config_kw/libconfig_kw.a(mvCommon.o)
 .debug_loc     0x00008933      0x2b8 board/mv_feroceon/config_kw/libconfig_kw.a(mvOs.o)
 .debug_loc     0x00008beb      0x620 board/mv_feroceon/config_kw/libconfig_kw.a(mvFlashCom.o)
 .debug_loc     0x0000920b     0x36c7 board/mv_feroceon/config_kw/libconfig_kw.a(mvSata.o)
 .debug_loc     0x0000c8d2     0x188a board/mv_feroceon/config_kw/libconfig_kw.a(mvStorageDev.o)
 .debug_loc     0x0000e15c      0xcd7 board/mv_feroceon/config_kw/libconfig_kw.a(mvSFlash.o)
 .debug_loc     0x0000ee33      0x9f3 board/mv_feroceon/config_kw/libconfig_kw.a(mvEthPhy.o)
 .debug_loc     0x0000f826       0xfa board/mv_feroceon/config_kw/libconfig_kw.a(mvRtc.o)
 .debug_loc     0x0000f920      0x649 board/mv_feroceon/config_kw/libconfig_kw.a(mvTwsi.o)
 .debug_loc     0x0000ff69      0x3b4 board/mv_feroceon/config_kw/libconfig_kw.a(mvGpp.o)
 .debug_loc     0x0001031d      0x4d8 board/mv_feroceon/config_kw/libconfig_kw.a(mvSpi.o)
 .debug_loc     0x000107f5      0x28e board/mv_feroceon/config_kw/libconfig_kw.a(mvSpiCmnd.o)
 .debug_loc     0x00010a83      0x40f board/mv_feroceon/config_kw/libconfig_kw.a(mvUsb.o)
 .debug_loc     0x00010e92      0x552 board/mv_feroceon/config_kw/libconfig_kw.a(mvXor.o)
 .debug_loc     0x000113e4     0x1b46 board/mv_feroceon/config_kw/libconfig_kw.a(mvEth.o)
 .debug_loc     0x00012f2a      0x5e7 board/mv_feroceon/config_kw/libconfig_kw.a(mvPciIf.o)
 .debug_loc     0x00013511      0x821 board/mv_feroceon/config_kw/libconfig_kw.a(mvPex.o)
 .debug_loc     0x00013d32     0x1179 board/mv_feroceon/config_kw/libconfig_kw.a(mvTsu.o)
 .debug_loc     0x00014eab      0x801 board/mv_feroceon/config_kw/libconfig_kw.a(mvMD5.o)
 .debug_loc     0x000156ac      0x64f board/mv_feroceon/config_kw/libconfig_kw.a(mvSwitch.o)
 .debug_loc     0x00015cfb      0x310 board/mv_feroceon/config_kw/libconfig_kw.a(mvCtrlEnvAddrDec.o)
 .debug_loc     0x0001600b      0x1c9 board/mv_feroceon/config_kw/libconfig_kw.a(mvSysSata.o)
 .debug_loc     0x000161d4      0x591 board/mv_feroceon/config_kw/libconfig_kw.a(mvPciUtils.o)
 .debug_loc     0x00016765       0x26 board/mv_feroceon/config_kw/libconfig_kw.a(mvOsSata.o)
 .debug_loc     0x0001678b      0x499 cpu/arm926ejs/libarm926ejs.a(interrupts.o)
 .debug_loc     0x00016c24      0x1ac lib_arm/libarm.a(board.o)
 .debug_loc     0x00016dd0      0xbab net/libnet.a(net.o)
 .debug_loc     0x0001797b      0x20b net/libnet.a(tftp.o)
 .debug_loc     0x00017b86      0x707 net/libnet.a(bootp.o)
 .debug_loc     0x0001828d       0xfb net/libnet.a(rarp.o)
 .debug_loc     0x00018388      0x3dc net/libnet.a(eth.o)
 .debug_loc     0x00018764      0x37b net/libnet.a(rcvr.o)
 .debug_loc     0x00018adf      0x272 disk/libdisk.a(part.o)
 .debug_loc     0x00018d51      0x363 disk/libdisk.a(part_dos.o)
 .debug_loc     0x000190b4      0x35b disk/libdisk.a(part_efi.o)
 .debug_loc     0x0001940f      0xfde drivers/libdrivers.a(cfi_flash.o)
 .debug_loc     0x0001a3ed      0xe70 drivers/libdrivers.a(pci.o)
 .debug_loc     0x0001b25d      0x40f drivers/libdrivers.a(pci_auto.o)
 .debug_loc     0x0001b66c       0x2a drivers/nand/libnand.a(nand.o)
 .debug_loc     0x0001b696     0x1a38 drivers/nand/libnand.a(nand_base.o)
 .debug_loc     0x0001d0ce      0x32a drivers/nand/libnand.a(nand_ecc.o)
 .debug_loc     0x0001d3f8     0x10cd drivers/nand/libnand.a(nand_bbt.o)
 .debug_loc     0x0001e4c5      0x872 drivers/nand/libnand.a(nand_util.o)
 .debug_loc     0x0001ed37      0x71e common/libcommon.a(main.o)
 .debug_loc     0x0001f455       0xe6 common/libcommon.a(cmd_boot.o)
 .debug_loc     0x0001f53b      0x6ef common/libcommon.a(cmd_bootm.o)
 .debug_loc     0x0001fc2a      0x2be common/libcommon.a(cmd_date.o)
 .debug_loc     0x0001fee8      0x30d common/libcommon.a(cmd_eeprom.o)
 .debug_loc     0x000201f5      0x52a common/libcommon.a(cmd_ext2.o)
 .debug_loc     0x0002071f      0xef5 common/libcommon.a(cmd_flash.o)
 .debug_loc     0x00021614      0x7ba common/libcommon.a(cmd_i2c.o)
 .debug_loc     0x00021dce     0x18f7 common/libcommon.a(cmd_jffs2.o)
 .debug_loc     0x000236c5      0xf86 common/libcommon.a(cmd_mem.o)
 .debug_loc     0x0002464b      0xbf5 common/libcommon.a(cmd_nand.o)
 .debug_loc     0x00025240      0x316 common/libcommon.a(cmd_net.o)
 .debug_loc     0x00025556      0x977 common/libcommon.a(cmd_nvedit.o)
 .debug_loc     0x00025ecd      0xf0a common/libcommon.a(cmd_pci.o)
 .debug_loc     0x00026dd7      0x7fd common/libcommon.a(cmd_scsi.o)
 .debug_loc     0x000275d4      0xb13 common/libcommon.a(command.o)
 .debug_loc     0x000280e7      0x4f0 common/libcommon.a(console.o)
 .debug_loc     0x000285d7       0x9c common/libcommon.a(devices.o)
 .debug_loc     0x00028673     0x10a2 common/libcommon.a(dlmalloc.o)
 .debug_loc     0x00029715      0x219 common/libcommon.a(env_common.o)
 .debug_loc     0x0002992e      0x27c common/libcommon.a(env_nand.o)
 .debug_loc     0x00029baa       0x2a common/libcommon.a(exports.o)
 .debug_loc     0x00029bd4      0x390 common/libcommon.a(flash.o)
 .debug_loc     0x00029f64      0x3b5 common/libcommon.a(lists.o)
 .debug_loc     0x0002a319      0x1a2 lib_generic/libgeneric.a(crc32.o)
 .debug_loc     0x0002a4bb       0xdf lib_generic/libgeneric.a(display_options.o)
 .debug_loc     0x0002a59a      0x64c lib_generic/libgeneric.a(string.o)
 .debug_loc     0x0002abe6      0x684 lib_generic/libgeneric.a(vsprintf.o)
 .debug_loc     0x0002b26a     0x1cde lib_generic/libgeneric.a(zlib.o)
 .debug_loc     0x0002cf48      0x283 board/mv_feroceon/config_kw/libconfig_kw.a(mvCntmr.o)
 .debug_loc     0x0002d1cb       0x8d board/mv_feroceon/config_kw/libconfig_kw.a(mv_dram.o)
 .debug_loc     0x0002d258      0x10e board/mv_feroceon/config_kw/libconfig_kw.a(mv_serial.o)
 .debug_loc     0x0002d366       0x90 board/mv_feroceon/config_kw/libconfig_kw.a(mv_rtc.o)
 .debug_loc     0x0002d3f6       0x1e board/mv_feroceon/config_kw/libconfig_kw.a(mv_nand.o)
 .debug_loc     0x0002d414      0x4ca board/mv_feroceon/config_kw/libconfig_kw.a(mv_egiga.o)
 .debug_loc     0x0002d8de      0x20d board/mv_feroceon/config_kw/libconfig_kw.a(mv_i2c.o)
 .debug_loc     0x0002daeb      0x907 board/mv_feroceon/config_kw/libconfig_kw.a(mvDramIf.o)
 .debug_loc     0x0002e3f2       0x39 board/mv_feroceon/config_kw/libconfig_kw.a(mvUart.o)
 .debug_loc     0x0002e42b      0x731 board/mv_feroceon/config_kw/libconfig_kw.a(mvSpd.o)
 .debug_loc     0x0002eb5c      0x1d5 cpu/arm926ejs/libarm926ejs.a(cpu.o)
 .debug_loc     0x0002ed31      0x528 lib_arm/libarm.a(armlinux.o)
 .debug_loc     0x0002f259      0x5b5 fs/cramfs/libcramfs.a(cramfs.o)
 .debug_loc     0x0002f80e      0x168 fs/cramfs/libcramfs.a(uncompress.o)
 .debug_loc     0x0002f976      0xcbb fs/jffs2/libjffs2.a(jffs2_1pass.o)
 .debug_loc     0x00030631      0x122 fs/jffs2/libjffs2.a(compr_rtime.o)
 .debug_loc     0x00030753      0x21d fs/jffs2/libjffs2.a(compr_rubin.o)
 .debug_loc     0x00030970       0x57 fs/jffs2/libjffs2.a(compr_zlib.o)
 .debug_loc     0x000309c7      0x48f fs/jffs2/libjffs2.a(mini_inflate.o)
 .debug_loc     0x00030e56      0x874 fs/ext2/libext2fs.a(ext2fs.o)
 .debug_loc     0x000316ca      0x1bd fs/ext2/libext2fs.a(dev.o)
 .debug_loc     0x00031887      0x1aa rtc/librtc.a(date.o)
 .debug_loc     0x00031a31      0x780 drivers/libdrivers.a(ahci.o)
 .debug_loc     0x000321b1      0x134 /opt/devel/proto/marvell/build-eabi/kernel-toolchain/bin/../lib/gcc/arm-none-linux-gnueabi/4.2.1/libgcc.a(bpabi.o)
 .debug_loc     0x000322e5      0xae3 /opt/devel/proto/marvell/build-eabi/kernel-toolchain/bin/../lib/gcc/arm-none-linux-gnueabi/4.2.1/libgcc.a(_divdi3.o)
 .debug_loc     0x00032dc8      0x9d3 /opt/devel/proto/marvell/build-eabi/kernel-toolchain/bin/../lib/gcc/arm-none-linux-gnueabi/4.2.1/libgcc.a(_udivdi3.o)

.debug_pubnames
                0x00000000     0x6e29
 .debug_pubnames
                0x00000000      0x2be board/mv_feroceon/config_kw/libconfig_kw.a(mv_cmd.o)
 .debug_pubnames
                0x000002be      0x322 board/mv_feroceon/config_kw/libconfig_kw.a(mv_main.o)
 .debug_pubnames
                0x000005e0      0x2dc board/mv_feroceon/config_kw/libconfig_kw.a(mvCtrlEnvLib.o)
 .debug_pubnames
                0x000008bc       0xf8 board/mv_feroceon/config_kw/libconfig_kw.a(mvAhbToMbus.o)
 .debug_pubnames
                0x000009b4      0x1a3 board/mv_feroceon/config_kw/libconfig_kw.a(mvCpuIf.o)
 .debug_pubnames
                0x00000b57       0xbd board/mv_feroceon/config_kw/libconfig_kw.a(mvSysXor.o)
 .debug_pubnames
                0x00000c14       0x55 board/mv_feroceon/config_kw/libconfig_kw.a(mvSysDram.o)
 .debug_pubnames
                0x00000c69       0xb9 board/mv_feroceon/config_kw/libconfig_kw.a(mvSysGbe.o)
 .debug_pubnames
                0x00000d22       0x8c board/mv_feroceon/config_kw/libconfig_kw.a(mvSysTs.o)
 .debug_pubnames
                0x00000dae      0x113 board/mv_feroceon/config_kw/libconfig_kw.a(mvSysPex.o)
 .debug_pubnames
                0x00000ec1       0x83 board/mv_feroceon/config_kw/libconfig_kw.a(mvSysUsb.o)
 .debug_pubnames
                0x00000f44       0x6a board/mv_feroceon/config_kw/libconfig_kw.a(mvCpu.o)
 .debug_pubnames
                0x00000fae      0x626 board/mv_feroceon/config_kw/libconfig_kw.a(mvBoardEnvLib.o)
 .debug_pubnames
                0x000015d4      0x4d4 board/mv_feroceon/config_kw/libconfig_kw.a(mvBoardEnvSpec.o)
 .debug_pubnames
                0x00001aa8      0x160 board/mv_feroceon/config_kw/libconfig_kw.a(mv_flash.o)
 .debug_pubnames
                0x00001c08      0x109 board/mv_feroceon/config_kw/libconfig_kw.a(mv_pageTable.o)
 .debug_pubnames
                0x00001d11       0x44 board/mv_feroceon/config_kw/libconfig_kw.a(mv_mon_init.o)
 .debug_pubnames
                0x00001d55       0xfa board/mv_feroceon/config_kw/libconfig_kw.a(mv_pci.o)
 .debug_pubnames
                0x00001e4f      0x15a board/mv_feroceon/config_kw/libconfig_kw.a(mv_ide.o)
 .debug_pubnames
                0x00001fa9       0x9b board/mv_feroceon/config_kw/libconfig_kw.a(mv_protectionUnit.o)
 .debug_pubnames
                0x00002044       0x43 board/mv_feroceon/config_kw/libconfig_kw.a(mv_ext2_boot.o)
 .debug_pubnames
                0x00002087       0x98 board/mv_feroceon/config_kw/libconfig_kw.a(mvCommon.o)
 .debug_pubnames
                0x0000211f      0x12e board/mv_feroceon/config_kw/libconfig_kw.a(mvOs.o)
 .debug_pubnames
                0x0000224d      0x1cb board/mv_feroceon/config_kw/libconfig_kw.a(mvFlashCom.o)
 .debug_pubnames
                0x00002418      0x480 board/mv_feroceon/config_kw/libconfig_kw.a(mvSata.o)
 .debug_pubnames
                0x00002898      0x334 board/mv_feroceon/config_kw/libconfig_kw.a(mvStorageDev.o)
 .debug_pubnames
                0x00002bcc      0x150 board/mv_feroceon/config_kw/libconfig_kw.a(mvSFlash.o)
 .debug_pubnames
                0x00002d1c      0x18f board/mv_feroceon/config_kw/libconfig_kw.a(mvEthPhy.o)
 .debug_pubnames
                0x00002eab       0x49 board/mv_feroceon/config_kw/libconfig_kw.a(mvRtc.o)
 .debug_pubnames
                0x00002ef4       0x97 board/mv_feroceon/config_kw/libconfig_kw.a(mvTwsi.o)
 .debug_pubnames
                0x00002f8b       0x89 board/mv_feroceon/config_kw/libconfig_kw.a(mvGpp.o)
 .debug_pubnames
                0x00003014       0x92 board/mv_feroceon/config_kw/libconfig_kw.a(mvSpi.o)
 .debug_pubnames
                0x000030a6       0x5e board/mv_feroceon/config_kw/libconfig_kw.a(mvSpiCmnd.o)
 .debug_pubnames
                0x00003104       0x9d board/mv_feroceon/config_kw/libconfig_kw.a(mvUsb.o)
 .debug_pubnames
                0x000031a1       0xc4 board/mv_feroceon/config_kw/libconfig_kw.a(mvXor.o)
 .debug_pubnames
                0x00003265      0x3ce board/mv_feroceon/config_kw/libconfig_kw.a(mvEth.o)
 .debug_pubnames
                0x00003633      0x116 board/mv_feroceon/config_kw/libconfig_kw.a(mvPciIf.o)
 .debug_pubnames
                0x00003749      0x14f board/mv_feroceon/config_kw/libconfig_kw.a(mvPex.o)
 .debug_pubnames
                0x00003898      0x2a1 board/mv_feroceon/config_kw/libconfig_kw.a(mvTsu.o)
 .debug_pubnames
                0x00003b39       0x5e board/mv_feroceon/config_kw/libconfig_kw.a(mvMD5.o)
 .debug_pubnames
                0x00003b97       0xac board/mv_feroceon/config_kw/libconfig_kw.a(mvSwitch.o)
 .debug_pubnames
                0x00003c43       0xbd board/mv_feroceon/config_kw/libconfig_kw.a(mvCtrlEnvAddrDec.o)
 .debug_pubnames
                0x00003d00       0x7a board/mv_feroceon/config_kw/libconfig_kw.a(mvSysSata.o)
 .debug_pubnames
                0x00003d7a       0x3d board/mv_feroceon/config_kw/libconfig_kw.a(mvPciUtils.o)
 .debug_pubnames
                0x00003db7       0x38 board/mv_feroceon/config_kw/libconfig_kw.a(mvOsSata.o)
 .debug_pubnames
                0x00003def      0x18a cpu/arm926ejs/libarm926ejs.a(interrupts.o)
 .debug_pubnames
                0x00003f79       0x78 lib_arm/libarm.a(board.o)
 .debug_pubnames
                0x00003ff1       0x29 lib_arm/libarm.a(cache.o)
 .debug_pubnames
                0x0000401a      0x40c net/libnet.a(net.o)
 .debug_pubnames
                0x00004426       0x27 net/libnet.a(tftp.o)
 .debug_pubnames
                0x0000444d       0x89 net/libnet.a(bootp.o)
 .debug_pubnames
                0x000044d6       0x35 net/libnet.a(rarp.o)
 .debug_pubnames
                0x0000450b       0xfb net/libnet.a(eth.o)
 .debug_pubnames
                0x00004606       0x6c net/libnet.a(rcvr.o)
 .debug_pubnames
                0x00004672       0x5b disk/libdisk.a(part.o)
 .debug_pubnames
                0x000046cd       0x59 disk/libdisk.a(part_dos.o)
 .debug_pubnames
                0x00004726       0x59 disk/libdisk.a(part_efi.o)
 .debug_pubnames
                0x0000477f      0x139 drivers/libdrivers.a(cfi_flash.o)
 .debug_pubnames
                0x000048b8      0x331 drivers/libdrivers.a(pci.o)
 .debug_pubnames
                0x00004be9       0xb1 drivers/libdrivers.a(pci_auto.o)
 .debug_pubnames
                0x00004c9a       0x4a drivers/nand/libnand.a(nand.o)
 .debug_pubnames
                0x00004ce4       0x5e drivers/nand/libnand.a(nand_base.o)
 .debug_pubnames
                0x00004d42       0x3f drivers/nand/libnand.a(nand_ids.o)
 .debug_pubnames
                0x00004d81       0x46 drivers/nand/libnand.a(nand_ecc.o)
 .debug_pubnames
                0x00004dc7       0x67 drivers/nand/libnand.a(nand_bbt.o)
 .debug_pubnames
                0x00004e2e       0x9a drivers/nand/libnand.a(nand_util.o)
 .debug_pubnames
                0x00004ec8       0x62 common/libcommon.a(main.o)
 .debug_pubnames
                0x00004f2a       0x4e common/libcommon.a(cmd_boot.o)
 .debug_pubnames
                0x00004f78       0xcd common/libcommon.a(cmd_bootm.o)
 .debug_pubnames
                0x00005045       0x54 common/libcommon.a(cmd_date.o)
 .debug_pubnames
                0x00005099       0x81 common/libcommon.a(cmd_eeprom.o)
 .debug_pubnames
                0x0000511a       0x76 common/libcommon.a(cmd_ext2.o)
 .debug_pubnames
                0x00005190       0xb9 common/libcommon.a(cmd_flash.o)
 .debug_pubnames
                0x00005249      0x11c common/libcommon.a(cmd_i2c.o)
 .debug_pubnames
                0x00005365      0x13d common/libcommon.a(cmd_jffs2.o)
 .debug_pubnames
                0x000054a2      0x22e common/libcommon.a(cmd_mem.o)
 .debug_pubnames
                0x000056d0       0x62 common/libcommon.a(cmd_nand.o)
 .debug_pubnames
                0x00005732       0xcf common/libcommon.a(cmd_net.o)
 .debug_pubnames
                0x00005801       0xd8 common/libcommon.a(cmd_nvedit.o)
 .debug_pubnames
                0x000058d9       0x87 common/libcommon.a(cmd_pci.o)
 .debug_pubnames
                0x00005960      0x18c common/libcommon.a(cmd_scsi.o)
 .debug_pubnames
                0x00005aec       0xf2 common/libcommon.a(command.o)
 .debug_pubnames
                0x00005bde      0x115 common/libcommon.a(console.o)
 .debug_pubnames
                0x00005cf3       0x7d common/libcommon.a(devices.o)
 .debug_pubnames
                0x00005d70       0xba common/libcommon.a(dlmalloc.o)
 .debug_pubnames
                0x00005e2a       0xbd common/libcommon.a(env_common.o)
 .debug_pubnames
                0x00005ee7       0x7c common/libcommon.a(env_nand.o)
 .debug_pubnames
                0x00005f63       0x3c common/libcommon.a(exports.o)
 .debug_pubnames
                0x00005f9f       0x5a common/libcommon.a(flash.o)
 .debug_pubnames
                0x00005ff9      0x11d common/libcommon.a(lists.o)
 .debug_pubnames
                0x00006116       0x35 lib_generic/libgeneric.a(crc32.o)
 .debug_pubnames
                0x0000614b       0x1d lib_generic/libgeneric.a(ctype.o)
 .debug_pubnames
                0x00006168       0x3c lib_generic/libgeneric.a(display_options.o)
 .debug_pubnames
                0x000061a4      0x13d lib_generic/libgeneric.a(string.o)
 .debug_pubnames
                0x000062e1       0x61 lib_generic/libgeneric.a(vsprintf.o)
 .debug_pubnames
                0x00006342       0xab lib_generic/libgeneric.a(zlib.o)
 .debug_pubnames
                0x000063ed       0xa6 board/mv_feroceon/config_kw/libconfig_kw.a(mvCntmr.o)
 .debug_pubnames
                0x00006493       0x59 board/mv_feroceon/config_kw/libconfig_kw.a(mv_dram.o)
 .debug_pubnames
                0x000064ec       0x7b board/mv_feroceon/config_kw/libconfig_kw.a(mv_serial.o)
 .debug_pubnames
                0x00006567       0x3f board/mv_feroceon/config_kw/libconfig_kw.a(mv_rtc.o)
 .debug_pubnames
                0x000065a6       0x2d board/mv_feroceon/config_kw/libconfig_kw.a(mv_nand.o)
 .debug_pubnames
                0x000065d3       0x3e board/mv_feroceon/config_kw/libconfig_kw.a(mv_egiga.o)
 .debug_pubnames
                0x00006611       0x4f board/mv_feroceon/config_kw/libconfig_kw.a(mv_i2c.o)
 .debug_pubnames
                0x00006660       0xfd board/mv_feroceon/config_kw/libconfig_kw.a(mvDramIf.o)
 .debug_pubnames
                0x0000675d       0x55 board/mv_feroceon/config_kw/libconfig_kw.a(mvUart.o)
 .debug_pubnames
                0x000067b2       0x5e board/mv_feroceon/config_kw/libconfig_kw.a(mvSpd.o)
 .debug_pubnames
                0x00006810       0xa8 cpu/arm926ejs/libarm926ejs.a(cpu.o)
 .debug_pubnames
                0x000068b8       0x2c lib_arm/libarm.a(armlinux.o)
 .debug_pubnames
                0x000068e4       0x62 fs/cramfs/libcramfs.a(cramfs.o)
 .debug_pubnames
                0x00006946       0x6b fs/cramfs/libcramfs.a(uncompress.o)
 .debug_pubnames
                0x000069b1       0x97 fs/jffs2/libjffs2.a(jffs2_1pass.o)
 .debug_pubnames
                0x00006a48       0x27 fs/jffs2/libjffs2.a(compr_rtime.o)
 .debug_pubnames
                0x00006a6f       0x42 fs/jffs2/libjffs2.a(compr_rubin.o)
 .debug_pubnames
                0x00006ab1       0x2d fs/jffs2/libjffs2.a(compr_zlib.o)
 .debug_pubnames
                0x00006ade       0x54 fs/jffs2/libjffs2.a(mini_inflate.o)
 .debug_pubnames
                0x00006b32      0x152 fs/ext2/libext2fs.a(ext2fs.o)
 .debug_pubnames
                0x00006c84       0x43 fs/ext2/libext2fs.a(dev.o)
 .debug_pubnames
                0x00006cc7       0x3f rtc/librtc.a(date.o)
 .debug_pubnames
                0x00006d06       0x7f drivers/libdrivers.a(ahci.o)
 .debug_pubnames
                0x00006d85       0x45 /opt/devel/proto/marvell/build-eabi/kernel-toolchain/bin/../lib/gcc/arm-none-linux-gnueabi/4.2.1/libgcc.a(bpabi.o)
 .debug_pubnames
                0x00006dca       0x1f /opt/devel/proto/marvell/build-eabi/kernel-toolchain/bin/../lib/gcc/arm-none-linux-gnueabi/4.2.1/libgcc.a(_divdi3.o)
 .debug_pubnames
                0x00006de9       0x20 /opt/devel/proto/marvell/build-eabi/kernel-toolchain/bin/../lib/gcc/arm-none-linux-gnueabi/4.2.1/libgcc.a(_udivdi3.o)
 .debug_pubnames
                0x00006e09       0x20 /opt/devel/proto/marvell/build-eabi/kernel-toolchain/bin/../lib/gcc/arm-none-linux-gnueabi/4.2.1/libgcc.a(_clz.o)

.debug_aranges  0x00000000      0xfa0
 .debug_aranges
                0x00000000       0x20 board/mv_feroceon/config_kw/libconfig_kw.a(mv_cmd.o)
 .debug_aranges
                0x00000020       0x20 board/mv_feroceon/config_kw/libconfig_kw.a(mv_main.o)
 .debug_aranges
                0x00000040       0x20 board/mv_feroceon/config_kw/libconfig_kw.a(mvCtrlEnvLib.o)
 .debug_aranges
                0x00000060       0x20 board/mv_feroceon/config_kw/libconfig_kw.a(mvAhbToMbus.o)
 .debug_aranges
                0x00000080       0x20 board/mv_feroceon/config_kw/libconfig_kw.a(mvCpuIf.o)
 .debug_aranges
                0x000000a0       0x20 board/mv_feroceon/config_kw/libconfig_kw.a(mvSysXor.o)
 .debug_aranges
                0x000000c0       0x20 board/mv_feroceon/config_kw/libconfig_kw.a(mvSysDram.o)
 .debug_aranges
                0x000000e0       0x20 board/mv_feroceon/config_kw/libconfig_kw.a(mvSysGbe.o)
 .debug_aranges
                0x00000100       0x20 board/mv_feroceon/config_kw/libconfig_kw.a(mvSysTs.o)
 .debug_aranges
                0x00000120       0x20 board/mv_feroceon/config_kw/libconfig_kw.a(mvSysPex.o)
 .debug_aranges
                0x00000140       0x20 board/mv_feroceon/config_kw/libconfig_kw.a(mvSysUsb.o)
 .debug_aranges
                0x00000160       0x20 board/mv_feroceon/config_kw/libconfig_kw.a(mvCpu.o)
 .debug_aranges
                0x00000180       0x20 board/mv_feroceon/config_kw/libconfig_kw.a(mvBoardEnvLib.o)
 .debug_aranges
                0x000001a0       0x20 board/mv_feroceon/config_kw/libconfig_kw.a(mv_flash.o)
 .debug_aranges
                0x000001c0       0x20 board/mv_feroceon/config_kw/libconfig_kw.a(mv_pageTable.o)
 .debug_aranges
                0x000001e0       0x20 board/mv_feroceon/config_kw/libconfig_kw.a(mv_mon_init.o)
 .debug_aranges
                0x00000200       0x20 board/mv_feroceon/config_kw/libconfig_kw.a(mv_pci.o)
 .debug_aranges
                0x00000220       0x20 board/mv_feroceon/config_kw/libconfig_kw.a(mv_ide.o)
 .debug_aranges
                0x00000240       0x20 board/mv_feroceon/config_kw/libconfig_kw.a(mv_protectionUnit.o)
 .debug_aranges
                0x00000260       0x20 board/mv_feroceon/config_kw/libconfig_kw.a(mv_ext2_boot.o)
 .debug_aranges
                0x00000280       0x20 board/mv_feroceon/config_kw/libconfig_kw.a(mvCommon.o)
 .debug_aranges
                0x000002a0       0x20 board/mv_feroceon/config_kw/libconfig_kw.a(mvOs.o)
 .debug_aranges
                0x000002c0       0x20 board/mv_feroceon/config_kw/libconfig_kw.a(mvFlashCom.o)
 .debug_aranges
                0x000002e0       0x20 board/mv_feroceon/config_kw/libconfig_kw.a(mvSata.o)
 .debug_aranges
                0x00000300       0x20 board/mv_feroceon/config_kw/libconfig_kw.a(mvStorageDev.o)
 .debug_aranges
                0x00000320       0x20 board/mv_feroceon/config_kw/libconfig_kw.a(mvSFlash.o)
 .debug_aranges
                0x00000340       0x20 board/mv_feroceon/config_kw/libconfig_kw.a(mvEthPhy.o)
 .debug_aranges
                0x00000360       0x20 board/mv_feroceon/config_kw/libconfig_kw.a(mvRtc.o)
 .debug_aranges
                0x00000380       0x20 board/mv_feroceon/config_kw/libconfig_kw.a(mvTwsi.o)
 .debug_aranges
                0x000003a0       0x20 board/mv_feroceon/config_kw/libconfig_kw.a(mvGpp.o)
 .debug_aranges
                0x000003c0       0x20 board/mv_feroceon/config_kw/libconfig_kw.a(mvSpi.o)
 .debug_aranges
                0x000003e0       0x20 board/mv_feroceon/config_kw/libconfig_kw.a(mvSpiCmnd.o)
 .debug_aranges
                0x00000400       0x20 board/mv_feroceon/config_kw/libconfig_kw.a(mvUsb.o)
 .debug_aranges
                0x00000420       0x20 board/mv_feroceon/config_kw/libconfig_kw.a(mvXor.o)
 .debug_aranges
                0x00000440       0x20 board/mv_feroceon/config_kw/libconfig_kw.a(mvEth.o)
 .debug_aranges
                0x00000460       0x20 board/mv_feroceon/config_kw/libconfig_kw.a(mvPciIf.o)
 .debug_aranges
                0x00000480       0x20 board/mv_feroceon/config_kw/libconfig_kw.a(mvPex.o)
 .debug_aranges
                0x000004a0       0x20 board/mv_feroceon/config_kw/libconfig_kw.a(mvTsu.o)
 .debug_aranges
                0x000004c0       0x20 board/mv_feroceon/config_kw/libconfig_kw.a(mvMD5.o)
 .debug_aranges
                0x000004e0       0x20 board/mv_feroceon/config_kw/libconfig_kw.a(mvSwitch.o)
 .debug_aranges
                0x00000500       0x20 board/mv_feroceon/config_kw/libconfig_kw.a(mvCtrlEnvAddrDec.o)
 .debug_aranges
                0x00000520       0x20 board/mv_feroceon/config_kw/libconfig_kw.a(mvSysSata.o)
 .debug_aranges
                0x00000540       0x20 board/mv_feroceon/config_kw/libconfig_kw.a(mvPciUtils.o)
 .debug_aranges
                0x00000560       0x20 board/mv_feroceon/config_kw/libconfig_kw.a(mvOsSata.o)
 .debug_aranges
                0x00000580       0x20 cpu/arm926ejs/libarm926ejs.a(interrupts.o)
 .debug_aranges
                0x000005a0       0x20 lib_arm/libarm.a(board.o)
 .debug_aranges
                0x000005c0       0x20 lib_arm/libarm.a(cache.o)
 .debug_aranges
                0x000005e0       0x20 net/libnet.a(net.o)
 .debug_aranges
                0x00000600       0x20 net/libnet.a(tftp.o)
 .debug_aranges
                0x00000620       0x20 net/libnet.a(bootp.o)
 .debug_aranges
                0x00000640       0x20 net/libnet.a(rarp.o)
 .debug_aranges
                0x00000660       0x20 net/libnet.a(eth.o)
 .debug_aranges
                0x00000680       0x20 net/libnet.a(rcvr.o)
 .debug_aranges
                0x000006a0       0x20 disk/libdisk.a(part.o)
 .debug_aranges
                0x000006c0       0x20 disk/libdisk.a(part_dos.o)
 .debug_aranges
                0x000006e0       0x20 disk/libdisk.a(part_efi.o)
 .debug_aranges
                0x00000700       0x20 drivers/libdrivers.a(cfi_flash.o)
 .debug_aranges
                0x00000720       0x20 drivers/libdrivers.a(pci.o)
 .debug_aranges
                0x00000740       0x20 drivers/libdrivers.a(pci_auto.o)
 .debug_aranges
                0x00000760       0x20 drivers/nand/libnand.a(nand.o)
 .debug_aranges
                0x00000780       0x20 drivers/nand/libnand.a(nand_base.o)
 .debug_aranges
                0x000007a0       0x20 drivers/nand/libnand.a(nand_ecc.o)
 .debug_aranges
                0x000007c0       0x20 drivers/nand/libnand.a(nand_bbt.o)
 .debug_aranges
                0x000007e0       0x20 drivers/nand/libnand.a(nand_util.o)
 .debug_aranges
                0x00000800       0x20 common/libcommon.a(main.o)
 .debug_aranges
                0x00000820       0x20 common/libcommon.a(cmd_boot.o)
 .debug_aranges
                0x00000840       0x20 common/libcommon.a(cmd_bootm.o)
 .debug_aranges
                0x00000860       0x20 common/libcommon.a(cmd_date.o)
 .debug_aranges
                0x00000880       0x20 common/libcommon.a(cmd_eeprom.o)
 .debug_aranges
                0x000008a0       0x20 common/libcommon.a(cmd_ext2.o)
 .debug_aranges
                0x000008c0       0x20 common/libcommon.a(cmd_flash.o)
 .debug_aranges
                0x000008e0       0x20 common/libcommon.a(cmd_i2c.o)
 .debug_aranges
                0x00000900       0x20 common/libcommon.a(cmd_jffs2.o)
 .debug_aranges
                0x00000920       0x20 common/libcommon.a(cmd_mem.o)
 .debug_aranges
                0x00000940       0x20 common/libcommon.a(cmd_nand.o)
 .debug_aranges
                0x00000960       0x20 common/libcommon.a(cmd_net.o)
 .debug_aranges
                0x00000980       0x20 common/libcommon.a(cmd_nvedit.o)
 .debug_aranges
                0x000009a0       0x20 common/libcommon.a(cmd_pci.o)
 .debug_aranges
                0x000009c0       0x20 common/libcommon.a(cmd_scsi.o)
 .debug_aranges
                0x000009e0       0x20 common/libcommon.a(command.o)
 .debug_aranges
                0x00000a00       0x20 common/libcommon.a(console.o)
 .debug_aranges
                0x00000a20       0x20 common/libcommon.a(devices.o)
 .debug_aranges
                0x00000a40       0x20 common/libcommon.a(dlmalloc.o)
 .debug_aranges
                0x00000a60       0x20 common/libcommon.a(env_common.o)
 .debug_aranges
                0x00000a80       0x20 common/libcommon.a(env_nand.o)
 .debug_aranges
                0x00000aa0       0x20 common/libcommon.a(exports.o)
 .debug_aranges
                0x00000ac0       0x20 common/libcommon.a(flash.o)
 .debug_aranges
                0x00000ae0       0x20 common/libcommon.a(lists.o)
 .debug_aranges
                0x00000b00       0x20 lib_generic/libgeneric.a(crc32.o)
 .debug_aranges
                0x00000b20       0x20 lib_generic/libgeneric.a(display_options.o)
 .debug_aranges
                0x00000b40       0x20 lib_generic/libgeneric.a(string.o)
 .debug_aranges
                0x00000b60       0x20 lib_generic/libgeneric.a(vsprintf.o)
 .debug_aranges
                0x00000b80       0x20 lib_generic/libgeneric.a(zlib.o)
 .debug_aranges
                0x00000ba0       0x20 board/mv_feroceon/config_kw/libconfig_kw.a(mvCntmr.o)
 .debug_aranges
                0x00000bc0       0x20 board/mv_feroceon/config_kw/libconfig_kw.a(mv_dram.o)
 .debug_aranges
                0x00000be0       0x20 board/mv_feroceon/config_kw/libconfig_kw.a(mv_serial.o)
 .debug_aranges
                0x00000c00       0x20 board/mv_feroceon/config_kw/libconfig_kw.a(mv_rtc.o)
 .debug_aranges
                0x00000c20       0x20 board/mv_feroceon/config_kw/libconfig_kw.a(mv_nand.o)
 .debug_aranges
                0x00000c40       0x20 board/mv_feroceon/config_kw/libconfig_kw.a(mv_egiga.o)
 .debug_aranges
                0x00000c60       0x20 board/mv_feroceon/config_kw/libconfig_kw.a(mv_i2c.o)
 .debug_aranges
                0x00000c80       0x20 board/mv_feroceon/config_kw/libconfig_kw.a(mvDramIf.o)
 .debug_aranges
                0x00000ca0       0x20 board/mv_feroceon/config_kw/libconfig_kw.a(mvUart.o)
 .debug_aranges
                0x00000cc0       0x20 board/mv_feroceon/config_kw/libconfig_kw.a(mvSpd.o)
 .debug_aranges
                0x00000ce0       0x20 cpu/arm926ejs/libarm926ejs.a(cpu.o)
 .debug_aranges
                0x00000d00       0x20 lib_arm/libarm.a(armlinux.o)
 .debug_aranges
                0x00000d20       0x20 fs/cramfs/libcramfs.a(cramfs.o)
 .debug_aranges
                0x00000d40       0x20 fs/cramfs/libcramfs.a(uncompress.o)
 .debug_aranges
                0x00000d60       0x20 fs/jffs2/libjffs2.a(jffs2_1pass.o)
 .debug_aranges
                0x00000d80       0x20 fs/jffs2/libjffs2.a(compr_rtime.o)
 .debug_aranges
                0x00000da0       0x20 fs/jffs2/libjffs2.a(compr_rubin.o)
 .debug_aranges
                0x00000dc0       0x20 fs/jffs2/libjffs2.a(compr_zlib.o)
 .debug_aranges
                0x00000de0       0x20 fs/jffs2/libjffs2.a(mini_inflate.o)
 .debug_aranges
                0x00000e00       0x20 fs/ext2/libext2fs.a(ext2fs.o)
 .debug_aranges
                0x00000e20       0x20 fs/ext2/libext2fs.a(dev.o)
 .debug_aranges
                0x00000e40       0x20 rtc/librtc.a(date.o)
 .debug_aranges
                0x00000e60       0x20 drivers/libdrivers.a(ahci.o)
 .debug_aranges
                0x00000e80       0x20 /opt/devel/proto/marvell/build-eabi/kernel-toolchain/bin/../lib/gcc/arm-none-linux-gnueabi/4.2.1/libgcc.a(_udivsi3.o)
 .debug_aranges
                0x00000ea0       0x20 /opt/devel/proto/marvell/build-eabi/kernel-toolchain/bin/../lib/gcc/arm-none-linux-gnueabi/4.2.1/libgcc.a(_divsi3.o)
 .debug_aranges
                0x00000ec0       0x20 /opt/devel/proto/marvell/build-eabi/kernel-toolchain/bin/../lib/gcc/arm-none-linux-gnueabi/4.2.1/libgcc.a(_ashrdi3.o)
 .debug_aranges
                0x00000ee0       0x20 /opt/devel/proto/marvell/build-eabi/kernel-toolchain/bin/../lib/gcc/arm-none-linux-gnueabi/4.2.1/libgcc.a(_ashldi3.o)
 .debug_aranges
                0x00000f00       0x20 /opt/devel/proto/marvell/build-eabi/kernel-toolchain/bin/../lib/gcc/arm-none-linux-gnueabi/4.2.1/libgcc.a(_aeabi_uldivmod.o)
 .debug_aranges
                0x00000f20       0x20 /opt/devel/proto/marvell/build-eabi/kernel-toolchain/bin/../lib/gcc/arm-none-linux-gnueabi/4.2.1/libgcc.a(_dvmd_lnx.o)
 .debug_aranges
                0x00000f40       0x20 /opt/devel/proto/marvell/build-eabi/kernel-toolchain/bin/../lib/gcc/arm-none-linux-gnueabi/4.2.1/libgcc.a(bpabi.o)
 .debug_aranges
                0x00000f60       0x20 /opt/devel/proto/marvell/build-eabi/kernel-toolchain/bin/../lib/gcc/arm-none-linux-gnueabi/4.2.1/libgcc.a(_divdi3.o)
 .debug_aranges
                0x00000f80       0x20 /opt/devel/proto/marvell/build-eabi/kernel-toolchain/bin/../lib/gcc/arm-none-linux-gnueabi/4.2.1/libgcc.a(_udivdi3.o)

.debug_ranges   0x00000000     0x3260
 .debug_ranges  0x00000000       0x68 board/mv_feroceon/config_kw/libconfig_kw.a(mv_cmd.o)
 .debug_ranges  0x00000068       0x98 board/mv_feroceon/config_kw/libconfig_kw.a(mv_main.o)
 .debug_ranges  0x00000100       0x58 board/mv_feroceon/config_kw/libconfig_kw.a(mvSysXor.o)
 .debug_ranges  0x00000158       0x58 board/mv_feroceon/config_kw/libconfig_kw.a(mvSysGbe.o)
 .debug_ranges  0x000001b0       0x60 board/mv_feroceon/config_kw/libconfig_kw.a(mvSysTs.o)
 .debug_ranges  0x00000210       0x28 board/mv_feroceon/config_kw/libconfig_kw.a(mvSysUsb.o)
 .debug_ranges  0x00000238       0x30 board/mv_feroceon/config_kw/libconfig_kw.a(mvCpu.o)
 .debug_ranges  0x00000268       0x18 board/mv_feroceon/config_kw/libconfig_kw.a(mvBoardEnvLib.o)
 .debug_ranges  0x00000280       0x48 board/mv_feroceon/config_kw/libconfig_kw.a(mv_flash.o)
 .debug_ranges  0x000002c8       0x30 board/mv_feroceon/config_kw/libconfig_kw.a(mv_pageTable.o)
 .debug_ranges  0x000002f8       0x18 board/mv_feroceon/config_kw/libconfig_kw.a(mv_mon_init.o)
 .debug_ranges  0x00000310       0x70 board/mv_feroceon/config_kw/libconfig_kw.a(mv_pci.o)
 .debug_ranges  0x00000380      0x248 board/mv_feroceon/config_kw/libconfig_kw.a(mv_ide.o)
 .debug_ranges  0x000005c8       0x30 board/mv_feroceon/config_kw/libconfig_kw.a(mvFlashCom.o)
 .debug_ranges  0x000005f8      0x548 board/mv_feroceon/config_kw/libconfig_kw.a(mvSata.o)
 .debug_ranges  0x00000b40       0x18 board/mv_feroceon/config_kw/libconfig_kw.a(mvStorageDev.o)
 .debug_ranges  0x00000b58       0x20 board/mv_feroceon/config_kw/libconfig_kw.a(mvSFlash.o)
 .debug_ranges  0x00000b78       0x98 board/mv_feroceon/config_kw/libconfig_kw.a(mvTwsi.o)
 .debug_ranges  0x00000c10      0x168 board/mv_feroceon/config_kw/libconfig_kw.a(mvUsb.o)
 .debug_ranges  0x00000d78      0x138 board/mv_feroceon/config_kw/libconfig_kw.a(mvEth.o)
 .debug_ranges  0x00000eb0       0x18 board/mv_feroceon/config_kw/libconfig_kw.a(mvPciIf.o)
 .debug_ranges  0x00000ec8       0x48 board/mv_feroceon/config_kw/libconfig_kw.a(mvSysSata.o)
 .debug_ranges  0x00000f10       0x80 board/mv_feroceon/config_kw/libconfig_kw.a(mvPciUtils.o)
 .debug_ranges  0x00000f90       0x50 lib_arm/libarm.a(board.o)
 .debug_ranges  0x00000fe0       0x68 net/libnet.a(net.o)
 .debug_ranges  0x00001048       0x78 net/libnet.a(bootp.o)
 .debug_ranges  0x000010c0       0x38 net/libnet.a(eth.o)
 .debug_ranges  0x000010f8       0x20 net/libnet.a(rcvr.o)
 .debug_ranges  0x00001118       0x18 disk/libdisk.a(part_dos.o)
 .debug_ranges  0x00001130       0xb8 disk/libdisk.a(part_efi.o)
 .debug_ranges  0x000011e8      0x120 drivers/libdrivers.a(cfi_flash.o)
 .debug_ranges  0x00001308       0x30 drivers/libdrivers.a(pci_auto.o)
 .debug_ranges  0x00001338       0x20 drivers/nand/libnand.a(nand.o)
 .debug_ranges  0x00001358       0xe8 drivers/nand/libnand.a(nand_base.o)
 .debug_ranges  0x00001440       0x30 drivers/nand/libnand.a(nand_ecc.o)
 .debug_ranges  0x00001470       0xc0 drivers/nand/libnand.a(nand_bbt.o)
 .debug_ranges  0x00001530       0x30 drivers/nand/libnand.a(nand_util.o)
 .debug_ranges  0x00001560      0x110 common/libcommon.a(main.o)
 .debug_ranges  0x00001670       0xb0 common/libcommon.a(cmd_bootm.o)
 .debug_ranges  0x00001720       0x40 common/libcommon.a(cmd_eeprom.o)
 .debug_ranges  0x00001760       0x18 common/libcommon.a(cmd_flash.o)
 .debug_ranges  0x00001778      0x2a0 common/libcommon.a(cmd_jffs2.o)
 .debug_ranges  0x00001a18       0xb8 common/libcommon.a(cmd_nand.o)
 .debug_ranges  0x00001ad0       0x48 common/libcommon.a(cmd_nvedit.o)
 .debug_ranges  0x00001b18       0x80 common/libcommon.a(cmd_pci.o)
 .debug_ranges  0x00001b98      0x148 common/libcommon.a(command.o)
 .debug_ranges  0x00001ce0       0x38 common/libcommon.a(console.o)
 .debug_ranges  0x00001d18       0x78 common/libcommon.a(dlmalloc.o)
 .debug_ranges  0x00001d90       0x58 common/libcommon.a(flash.o)
 .debug_ranges  0x00001de8       0x18 lib_generic/libgeneric.a(vsprintf.o)
 .debug_ranges  0x00001e00      0x598 lib_generic/libgeneric.a(zlib.o)
 .debug_ranges  0x00002398      0x150 board/mv_feroceon/config_kw/libconfig_kw.a(mv_egiga.o)
 .debug_ranges  0x000024e8      0x140 board/mv_feroceon/config_kw/libconfig_kw.a(mvDramIf.o)
 .debug_ranges  0x00002628      0x160 lib_arm/libarm.a(armlinux.o)
 .debug_ranges  0x00002788      0x378 fs/jffs2/libjffs2.a(jffs2_1pass.o)
 .debug_ranges  0x00002b00       0x18 fs/jffs2/libjffs2.a(compr_rubin.o)
 .debug_ranges  0x00002b18      0x148 fs/jffs2/libjffs2.a(mini_inflate.o)
 .debug_ranges  0x00002c60      0x100 fs/ext2/libext2fs.a(ext2fs.o)
 .debug_ranges  0x00002d60       0x18 fs/ext2/libext2fs.a(dev.o)
 .debug_ranges  0x00002d78      0x1a0 drivers/libdrivers.a(ahci.o)
 .debug_ranges  0x00002f18      0x1d0 /opt/devel/proto/marvell/build-eabi/kernel-toolchain/bin/../lib/gcc/arm-none-linux-gnueabi/4.2.1/libgcc.a(_divdi3.o)
 .debug_ranges  0x000030e8      0x178 /opt/devel/proto/marvell/build-eabi/kernel-toolchain/bin/../lib/gcc/arm-none-linux-gnueabi/4.2.1/libgcc.a(_udivdi3.o)

.debug_str      0x00000000    0x118a7
 .debug_str     0x00000000      0x7fd board/mv_feroceon/config_kw/libconfig_kw.a(mv_cmd.o)
                                0x9c1 (size before relaxing)
 .debug_str     0x000007fd      0xb1e board/mv_feroceon/config_kw/libconfig_kw.a(mv_main.o)
                                0xfaf (size before relaxing)
 .debug_str     0x0000131b      0x41c board/mv_feroceon/config_kw/libconfig_kw.a(mvCtrlEnvLib.o)
                                0x7ff (size before relaxing)
 .debug_str     0x00001737      0x3a2 board/mv_feroceon/config_kw/libconfig_kw.a(mvAhbToMbus.o)
                                0x656 (size before relaxing)
 .debug_str     0x00001ad9      0x289 board/mv_feroceon/config_kw/libconfig_kw.a(mvCpuIf.o)
                                0x5a7 (size before relaxing)
 .debug_str     0x00001d62      0x1a6 board/mv_feroceon/config_kw/libconfig_kw.a(mvSysXor.o)
                                0x59c (size before relaxing)
 .debug_str     0x00001f08       0xcc board/mv_feroceon/config_kw/libconfig_kw.a(mvSysDram.o)
                                0x3c6 (size before relaxing)
 .debug_str     0x00001fd4      0x1bb board/mv_feroceon/config_kw/libconfig_kw.a(mvSysGbe.o)
                                0x6c4 (size before relaxing)
 .debug_str     0x0000218f      0x1c5 board/mv_feroceon/config_kw/libconfig_kw.a(mvSysTs.o)
                                0x6ae (size before relaxing)
 .debug_str     0x00002354      0x2a0 board/mv_feroceon/config_kw/libconfig_kw.a(mvSysPex.o)
                                0x7b7 (size before relaxing)
 .debug_str     0x000025f4      0x130 board/mv_feroceon/config_kw/libconfig_kw.a(mvSysUsb.o)
                                0x4d9 (size before relaxing)
 .debug_str     0x00002724      0x209 board/mv_feroceon/config_kw/libconfig_kw.a(mvCpu.o)
                                0x3fe (size before relaxing)
 .debug_str     0x0000292d      0xc65 board/mv_feroceon/config_kw/libconfig_kw.a(mvBoardEnvLib.o)
                               0x142b (size before relaxing)
 .debug_str     0x00003592      0x47b board/mv_feroceon/config_kw/libconfig_kw.a(mvBoardEnvSpec.o)
                                0xd9d (size before relaxing)
 .debug_str     0x00003a0d      0x4f0 board/mv_feroceon/config_kw/libconfig_kw.a(mv_flash.o)
                                0x84d (size before relaxing)
 .debug_str     0x00003efd      0x1f5 board/mv_feroceon/config_kw/libconfig_kw.a(mv_pageTable.o)
                                0x431 (size before relaxing)
 .debug_str     0x000040f2       0x78 board/mv_feroceon/config_kw/libconfig_kw.a(mv_mon_init.o)
                                0x206 (size before relaxing)
 .debug_str     0x0000416a      0x76c board/mv_feroceon/config_kw/libconfig_kw.a(mv_pci.o)
                                0xc7b (size before relaxing)
 .debug_str     0x000048d6     0x19d6 board/mv_feroceon/config_kw/libconfig_kw.a(mv_ide.o)
                               0x1e10 (size before relaxing)
 .debug_str     0x000062ac      0x2d5 board/mv_feroceon/config_kw/libconfig_kw.a(mv_protectionUnit.o)
                                0x5a9 (size before relaxing)
 .debug_str     0x00006581       0xa5 board/mv_feroceon/config_kw/libconfig_kw.a(mv_ext2_boot.o)
                                0x354 (size before relaxing)
 .debug_str     0x00006626       0xd8 board/mv_feroceon/config_kw/libconfig_kw.a(mvCommon.o)
                                0x290 (size before relaxing)
 .debug_str     0x000066fe      0x17a board/mv_feroceon/config_kw/libconfig_kw.a(mvOs.o)
                                0x31e (size before relaxing)
 .debug_str     0x00006878      0x1e2 board/mv_feroceon/config_kw/libconfig_kw.a(mvFlashCom.o)
                                0x4cb (size before relaxing)
 .debug_str     0x00006a5a      0xf5f board/mv_feroceon/config_kw/libconfig_kw.a(mvSata.o)
                               0x2310 (size before relaxing)
 .debug_str     0x000079b9      0x46a board/mv_feroceon/config_kw/libconfig_kw.a(mvStorageDev.o)
                               0x1633 (size before relaxing)
 .debug_str     0x00007e23      0x387 board/mv_feroceon/config_kw/libconfig_kw.a(mvSFlash.o)
                                0x647 (size before relaxing)
 .debug_str     0x000081aa      0x1db board/mv_feroceon/config_kw/libconfig_kw.a(mvEthPhy.o)
                                0x3da (size before relaxing)
 .debug_str     0x00008385       0xa7 board/mv_feroceon/config_kw/libconfig_kw.a(mvRtc.o)
                                0x29e (size before relaxing)
 .debug_str     0x0000842c      0x244 board/mv_feroceon/config_kw/libconfig_kw.a(mvTwsi.o)
                                0x4d5 (size before relaxing)
 .debug_str     0x00008670       0xca board/mv_feroceon/config_kw/libconfig_kw.a(mvGpp.o)
                                0x2a6 (size before relaxing)
 .debug_str     0x0000873a      0x151 board/mv_feroceon/config_kw/libconfig_kw.a(mvSpi.o)
                                0x338 (size before relaxing)
 .debug_str     0x0000888b       0xf7 board/mv_feroceon/config_kw/libconfig_kw.a(mvSpiCmnd.o)
                                0x2b5 (size before relaxing)
 .debug_str     0x00008982      0x103 board/mv_feroceon/config_kw/libconfig_kw.a(mvUsb.o)
                                0x2d5 (size before relaxing)
 .debug_str     0x00008a85      0x2c2 board/mv_feroceon/config_kw/libconfig_kw.a(mvXor.o)
                                0x4c8 (size before relaxing)
 .debug_str     0x00008d47      0xb1c board/mv_feroceon/config_kw/libconfig_kw.a(mvEth.o)
                                0xefd (size before relaxing)
 .debug_str     0x00009863      0x153 board/mv_feroceon/config_kw/libconfig_kw.a(mvPciIf.o)
                                0x3d5 (size before relaxing)
 .debug_str     0x000099b6      0x185 board/mv_feroceon/config_kw/libconfig_kw.a(mvPex.o)
                                0x55b (size before relaxing)
 .debug_str     0x00009b3b      0x61e board/mv_feroceon/config_kw/libconfig_kw.a(mvTsu.o)
                                0x8df (size before relaxing)
 .debug_str     0x0000a159       0xc5 board/mv_feroceon/config_kw/libconfig_kw.a(mvMD5.o)
                                0x277 (size before relaxing)
 .debug_str     0x0000a21e      0x15d board/mv_feroceon/config_kw/libconfig_kw.a(mvSwitch.o)
                                0x321 (size before relaxing)
 .debug_str     0x0000a37b      0x10d board/mv_feroceon/config_kw/libconfig_kw.a(mvCtrlEnvAddrDec.o)
                                0x51b (size before relaxing)
 .debug_str     0x0000a488       0xf3 board/mv_feroceon/config_kw/libconfig_kw.a(mvSysSata.o)
                                0x5d7 (size before relaxing)
 .debug_str     0x0000a57b      0x131 board/mv_feroceon/config_kw/libconfig_kw.a(mvPciUtils.o)
                                0x6e8 (size before relaxing)
 .debug_str     0x0000a6ac       0x6f board/mv_feroceon/config_kw/libconfig_kw.a(mvOsSata.o)
                                0x210 (size before relaxing)
 .debug_str     0x0000a71b      0x1b7 cpu/arm926ejs/libarm926ejs.a(interrupts.o)
                                0x384 (size before relaxing)
 .debug_str     0x0000a8d2      0x164 lib_arm/libarm.a(board.o)
                                0x31a (size before relaxing)
 .debug_str     0x0000aa36       0x22 lib_arm/libarm.a(cache.o)
                                0x1dc (size before relaxing)
 .debug_str     0x0000aa58      0x5d3 net/libnet.a(net.o)
                                0x833 (size before relaxing)
 .debug_str     0x0000b02b       0xec net/libnet.a(tftp.o)
                                0x36b (size before relaxing)
 .debug_str     0x0000b117      0x245 net/libnet.a(bootp.o)
                                0x56e (size before relaxing)
 .debug_str     0x0000b35c       0x4c net/libnet.a(rarp.o)
                                0x287 (size before relaxing)
 .debug_str     0x0000b3a8      0x17c net/libnet.a(eth.o)
                                0x389 (size before relaxing)
 .debug_str     0x0000b524      0x1bf net/libnet.a(rcvr.o)
                                0x42c (size before relaxing)
 .debug_str     0x0000b6e3       0xb5 disk/libdisk.a(part.o)
                                0x2fd (size before relaxing)
 .debug_str     0x0000b798      0x13f disk/libdisk.a(part_dos.o)
                                0x3d0 (size before relaxing)
 .debug_str     0x0000b8d7      0x2d9 disk/libdisk.a(part_efi.o)
                                0x632 (size before relaxing)
 .debug_str     0x0000bbb0      0x2c8 drivers/libdrivers.a(cfi_flash.o)
                                0x615 (size before relaxing)
 .debug_str     0x0000be78      0x314 drivers/libdrivers.a(pci.o)
                                0x674 (size before relaxing)
 .debug_str     0x0000c18c       0xf0 drivers/libdrivers.a(pci_auto.o)
                                0x42d (size before relaxing)
 .debug_str     0x0000c27c      0x1d4 drivers/nand/libnand.a(nand.o)
                                0x67f (size before relaxing)
 .debug_str     0x0000c450      0x4bd drivers/nand/libnand.a(nand_base.o)
                                0xb29 (size before relaxing)
 .debug_str     0x0000c90d        0xb drivers/nand/libnand.a(nand_ids.o)
                                0x233 (size before relaxing)
 .debug_str     0x0000c918       0x7b drivers/nand/libnand.a(nand_ecc.o)
                                0x466 (size before relaxing)
 .debug_str     0x0000c993      0x232 drivers/nand/libnand.a(nand_bbt.o)
                                0x894 (size before relaxing)
 .debug_str     0x0000cbc5      0x1e3 drivers/nand/libnand.a(nand_util.o)
                                0x969 (size before relaxing)
 .debug_str     0x0000cda8      0x119 common/libcommon.a(main.o)
                                0x33b (size before relaxing)
 .debug_str     0x0000cec1       0x34 common/libcommon.a(cmd_boot.o)
                                0x24d (size before relaxing)
 .debug_str     0x0000cef5      0x20f common/libcommon.a(cmd_bootm.o)
                                0x52a (size before relaxing)
 .debug_str     0x0000d104       0x4a common/libcommon.a(cmd_date.o)
                                0x2ba (size before relaxing)
 .debug_str     0x0000d14e       0x6e common/libcommon.a(cmd_eeprom.o)
                                0x2ac (size before relaxing)
 .debug_str     0x0000d1bc       0x87 common/libcommon.a(cmd_ext2.o)
                                0x37d (size before relaxing)
 .debug_str     0x0000d243      0x17d common/libcommon.a(cmd_flash.o)
                                0x51a (size before relaxing)
 .debug_str     0x0000d3c0      0x181 common/libcommon.a(cmd_i2c.o)
                                0x3f2 (size before relaxing)
 .debug_str     0x0000d541      0x43f common/libcommon.a(cmd_jffs2.o)
                                0xa71 (size before relaxing)
 .debug_str     0x0000d980      0x1fe common/libcommon.a(cmd_mem.o)
                                0x75b (size before relaxing)
 .debug_str     0x0000db7e       0xb1 common/libcommon.a(cmd_nand.o)
                                0x95b (size before relaxing)
 .debug_str     0x0000dc2f       0xba common/libcommon.a(cmd_net.o)
                                0x3a9 (size before relaxing)
 .debug_str     0x0000dce9       0xdc common/libcommon.a(cmd_nvedit.o)
                                0x343 (size before relaxing)
 .debug_str     0x0000ddc5       0xe4 common/libcommon.a(cmd_pci.o)
                                0x399 (size before relaxing)
 .debug_str     0x0000dea9      0x1f4 common/libcommon.a(cmd_scsi.o)
                                0x5f3 (size before relaxing)
 .debug_str     0x0000e09d      0x193 common/libcommon.a(command.o)
                                0x3e3 (size before relaxing)
 .debug_str     0x0000e230      0x26d common/libcommon.a(console.o)
                                0x4a0 (size before relaxing)
 .debug_str     0x0000e49d       0x37 common/libcommon.a(devices.o)
                                0x2b2 (size before relaxing)
 .debug_str     0x0000e4d4      0x27a common/libcommon.a(dlmalloc.o)
                                0x4cd (size before relaxing)
 .debug_str     0x0000e74e       0xb6 common/libcommon.a(env_common.o)
                                0x2a2 (size before relaxing)
 .debug_str     0x0000e804       0x6c common/libcommon.a(env_nand.o)
                                0x4e5 (size before relaxing)
 .debug_str     0x0000e870       0x19 common/libcommon.a(exports.o)
                                0x2ca (size before relaxing)
 .debug_str     0x0000e889       0x46 common/libcommon.a(flash.o)
                                0x339 (size before relaxing)
 .debug_str     0x0000e8cf      0x1d5 common/libcommon.a(lists.o)
                                0x408 (size before relaxing)
 .debug_str     0x0000eaa4       0x64 lib_generic/libgeneric.a(crc32.o)
                                0x201 (size before relaxing)
 .debug_str     0x0000eb08        0x8 lib_generic/libgeneric.a(ctype.o)
                                 0x66 (size before relaxing)
 .debug_str     0x0000eb10       0x2d lib_generic/libgeneric.a(display_options.o)
                                0x1fa (size before relaxing)
 .debug_str     0x0000eb3d       0xce lib_generic/libgeneric.a(string.o)
                                0x1f4 (size before relaxing)
 .debug_str     0x0000ec0b       0x79 lib_generic/libgeneric.a(vsprintf.o)
                                0x2a2 (size before relaxing)
 .debug_str     0x0000ec84      0x3a3 lib_generic/libgeneric.a(zlib.o)
                                0x5c1 (size before relaxing)
 .debug_str     0x0000f027       0xe9 board/mv_feroceon/config_kw/libconfig_kw.a(mvCntmr.o)
                                0x2e0 (size before relaxing)
 .debug_str     0x0000f110       0x9d board/mv_feroceon/config_kw/libconfig_kw.a(mv_dram.o)
                                0x25f (size before relaxing)
 .debug_str     0x0000f1ad       0xc5 board/mv_feroceon/config_kw/libconfig_kw.a(mv_serial.o)
                                0x272 (size before relaxing)
 .debug_str     0x0000f272       0x6a board/mv_feroceon/config_kw/libconfig_kw.a(mv_rtc.o)
                                0x28c (size before relaxing)
 .debug_str     0x0000f2dc       0x73 board/mv_feroceon/config_kw/libconfig_kw.a(mv_nand.o)
                                0x663 (size before relaxing)
 .debug_str     0x0000f34f      0x1aa board/mv_feroceon/config_kw/libconfig_kw.a(mv_egiga.o)
                                0x838 (size before relaxing)
 .debug_str     0x0000f4f9       0x79 board/mv_feroceon/config_kw/libconfig_kw.a(mv_i2c.o)
                                0x343 (size before relaxing)
 .debug_str     0x0000f572      0x717 board/mv_feroceon/config_kw/libconfig_kw.a(mvDramIf.o)
                                0xa15 (size before relaxing)
 .debug_str     0x0000fc89       0xb0 board/mv_feroceon/config_kw/libconfig_kw.a(mvUart.o)
                                0x290 (size before relaxing)
 .debug_str     0x0000fd39      0x157 board/mv_feroceon/config_kw/libconfig_kw.a(mvSpd.o)
                                0x6af (size before relaxing)
 .debug_str     0x0000fe90       0x85 cpu/arm926ejs/libarm926ejs.a(cpu.o)
                                0x2b2 (size before relaxing)
 .debug_str     0x0000ff15      0x316 lib_arm/libarm.a(armlinux.o)
                                0x68c (size before relaxing)
 .debug_str     0x0001022b      0x14b fs/cramfs/libcramfs.a(cramfs.o)
                                0x47c (size before relaxing)
 .debug_str     0x00010376       0x5a fs/cramfs/libcramfs.a(uncompress.o)
                                0x2f2 (size before relaxing)
 .debug_str     0x000103d0      0x57f fs/jffs2/libjffs2.a(jffs2_1pass.o)
                                0xc21 (size before relaxing)
 .debug_str     0x0001094f       0x53 fs/jffs2/libjffs2.a(compr_rtime.o)
                                0x11b (size before relaxing)
 .debug_str     0x000109a2       0x4b fs/jffs2/libjffs2.a(compr_rubin.o)
                                0x15b (size before relaxing)
 .debug_str     0x000109ed       0x1d fs/jffs2/libjffs2.a(compr_zlib.o)
                                0x1ff (size before relaxing)
 .debug_str     0x00010a0a      0x21a fs/jffs2/libjffs2.a(mini_inflate.o)
                                0x2ff (size before relaxing)
 .debug_str     0x00010c24      0x557 fs/ext2/libext2fs.a(ext2fs.o)
                                0x7f5 (size before relaxing)
 .debug_str     0x0001117b       0x75 fs/ext2/libext2fs.a(dev.o)
                                0x2f9 (size before relaxing)
 .debug_str     0x000111f0       0x7b rtc/librtc.a(date.o)
                                0x25c (size before relaxing)
 .debug_str     0x0001126b      0x2d0 drivers/libdrivers.a(ahci.o)
                                0x8b5 (size before relaxing)
 .debug_str     0x0001153b       0xa8 /opt/devel/proto/marvell/build-eabi/kernel-toolchain/bin/../lib/gcc/arm-none-linux-gnueabi/4.2.1/libgcc.a(bpabi.o)
                                 0xe3 (size before relaxing)
 .debug_str     0x000115e3      0x2ba /opt/devel/proto/marvell/build-eabi/kernel-toolchain/bin/../lib/gcc/arm-none-linux-gnueabi/4.2.1/libgcc.a(_divdi3.o)
                                0x3b3 (size before relaxing)
 .debug_str     0x0001189d        0xa /opt/devel/proto/marvell/build-eabi/kernel-toolchain/bin/../lib/gcc/arm-none-linux-gnueabi/4.2.1/libgcc.a(_udivdi3.o)
                                0x3aa (size before relaxing)
 .debug_str     0x00000000      0x32d /opt/devel/proto/marvell/build-eabi/kernel-toolchain/bin/../lib/gcc/arm-none-linux-gnueabi/4.2.1/libgcc.a(_clz.o)

.comment        0x00000000      0x8a6
 .comment       0x00000000       0x12 board/mv_feroceon/config_kw/libconfig_kw.a(mv_cmd.o)
 .comment       0x00000012       0x12 board/mv_feroceon/config_kw/libconfig_kw.a(mv_main.o)
 .comment       0x00000024       0x12 board/mv_feroceon/config_kw/libconfig_kw.a(mvCtrlEnvLib.o)
 .comment       0x00000036       0x12 board/mv_feroceon/config_kw/libconfig_kw.a(mvAhbToMbus.o)
 .comment       0x00000048       0x12 board/mv_feroceon/config_kw/libconfig_kw.a(mvCpuIf.o)
 .comment       0x0000005a       0x12 board/mv_feroceon/config_kw/libconfig_kw.a(mvSysXor.o)
 .comment       0x0000006c       0x12 board/mv_feroceon/config_kw/libconfig_kw.a(mvSysDram.o)
 .comment       0x0000007e       0x12 board/mv_feroceon/config_kw/libconfig_kw.a(mvSysGbe.o)
 .comment       0x00000090       0x12 board/mv_feroceon/config_kw/libconfig_kw.a(mvSysTs.o)
 .comment       0x000000a2       0x12 board/mv_feroceon/config_kw/libconfig_kw.a(mvSysPex.o)
 .comment       0x000000b4       0x12 board/mv_feroceon/config_kw/libconfig_kw.a(mvSysUsb.o)
 .comment       0x000000c6       0x12 board/mv_feroceon/config_kw/libconfig_kw.a(mvCpu.o)
 .comment       0x000000d8       0x12 board/mv_feroceon/config_kw/libconfig_kw.a(mvBoardEnvLib.o)
 .comment       0x000000ea       0x12 board/mv_feroceon/config_kw/libconfig_kw.a(mvBoardEnvSpec.o)
 .comment       0x000000fc       0x12 board/mv_feroceon/config_kw/libconfig_kw.a(mv_flash.o)
 .comment       0x0000010e       0x12 board/mv_feroceon/config_kw/libconfig_kw.a(mv_pageTable.o)
 .comment       0x00000120       0x12 board/mv_feroceon/config_kw/libconfig_kw.a(mv_mon_init.o)
 .comment       0x00000132       0x12 board/mv_feroceon/config_kw/libconfig_kw.a(mv_pci.o)
 .comment       0x00000144       0x12 board/mv_feroceon/config_kw/libconfig_kw.a(mv_ide.o)
 .comment       0x00000156       0x12 board/mv_feroceon/config_kw/libconfig_kw.a(mv_protectionUnit.o)
 .comment       0x00000168       0x12 board/mv_feroceon/config_kw/libconfig_kw.a(mv_ext2_boot.o)
 .comment       0x0000017a       0x12 board/mv_feroceon/config_kw/libconfig_kw.a(mvCommon.o)
 .comment       0x0000018c       0x12 board/mv_feroceon/config_kw/libconfig_kw.a(mvOs.o)
 .comment       0x0000019e       0x12 board/mv_feroceon/config_kw/libconfig_kw.a(mvFlashCom.o)
 .comment       0x000001b0       0x12 board/mv_feroceon/config_kw/libconfig_kw.a(mvSata.o)
 .comment       0x000001c2       0x12 board/mv_feroceon/config_kw/libconfig_kw.a(mvStorageDev.o)
 .comment       0x000001d4       0x12 board/mv_feroceon/config_kw/libconfig_kw.a(mvSFlash.o)
 .comment       0x000001e6       0x12 board/mv_feroceon/config_kw/libconfig_kw.a(mvEthPhy.o)
 .comment       0x000001f8       0x12 board/mv_feroceon/config_kw/libconfig_kw.a(mvRtc.o)
 .comment       0x0000020a       0x12 board/mv_feroceon/config_kw/libconfig_kw.a(mvTwsi.o)
 .comment       0x0000021c       0x12 board/mv_feroceon/config_kw/libconfig_kw.a(mvGpp.o)
 .comment       0x0000022e       0x12 board/mv_feroceon/config_kw/libconfig_kw.a(mvSpi.o)
 .comment       0x00000240       0x12 board/mv_feroceon/config_kw/libconfig_kw.a(mvSpiCmnd.o)
 .comment       0x00000252       0x12 board/mv_feroceon/config_kw/libconfig_kw.a(mvUsb.o)
 .comment       0x00000264       0x12 board/mv_feroceon/config_kw/libconfig_kw.a(mvXor.o)
 .comment       0x00000276       0x12 board/mv_feroceon/config_kw/libconfig_kw.a(mvEth.o)
 .comment       0x00000288       0x12 board/mv_feroceon/config_kw/libconfig_kw.a(mvPciIf.o)
 .comment       0x0000029a       0x12 board/mv_feroceon/config_kw/libconfig_kw.a(mvPex.o)
 .comment       0x000002ac       0x12 board/mv_feroceon/config_kw/libconfig_kw.a(mvTsu.o)
 .comment       0x000002be       0x12 board/mv_feroceon/config_kw/libconfig_kw.a(mvMD5.o)
 .comment       0x000002d0       0x12 board/mv_feroceon/config_kw/libconfig_kw.a(mvSwitch.o)
 .comment       0x000002e2       0x12 board/mv_feroceon/config_kw/libconfig_kw.a(mvCtrlEnvAddrDec.o)
 .comment       0x000002f4       0x12 board/mv_feroceon/config_kw/libconfig_kw.a(mvSysSata.o)
 .comment       0x00000306       0x12 board/mv_feroceon/config_kw/libconfig_kw.a(mvPciUtils.o)
 .comment       0x00000318       0x12 board/mv_feroceon/config_kw/libconfig_kw.a(mvOsSata.o)
 .comment       0x0000032a       0x12 cpu/arm926ejs/libarm926ejs.a(interrupts.o)
 .comment       0x0000033c       0x12 lib_arm/libarm.a(board.o)
 .comment       0x0000034e       0x12 lib_arm/libarm.a(cache.o)
 .comment       0x00000360       0x12 net/libnet.a(net.o)
 .comment       0x00000372       0x12 net/libnet.a(tftp.o)
 .comment       0x00000384       0x12 net/libnet.a(bootp.o)
 .comment       0x00000396       0x12 net/libnet.a(rarp.o)
 .comment       0x000003a8       0x12 net/libnet.a(eth.o)
 .comment       0x000003ba       0x12 net/libnet.a(rcvr.o)
 .comment       0x000003cc       0x12 disk/libdisk.a(part.o)
 .comment       0x000003de       0x12 disk/libdisk.a(part_dos.o)
 .comment       0x000003f0       0x12 disk/libdisk.a(part_efi.o)
 .comment       0x00000402       0x12 drivers/libdrivers.a(cfi_flash.o)
 .comment       0x00000414       0x12 drivers/libdrivers.a(pci.o)
 .comment       0x00000426       0x12 drivers/libdrivers.a(pci_auto.o)
 .comment       0x00000438       0x12 drivers/nand/libnand.a(nand.o)
 .comment       0x0000044a       0x12 drivers/nand/libnand.a(nand_base.o)
 .comment       0x0000045c       0x12 drivers/nand/libnand.a(nand_ids.o)
 .comment       0x0000046e       0x12 drivers/nand/libnand.a(nand_ecc.o)
 .comment       0x00000480       0x12 drivers/nand/libnand.a(nand_bbt.o)
 .comment       0x00000492       0x12 drivers/nand/libnand.a(nand_util.o)
 .comment       0x000004a4       0x12 common/libcommon.a(main.o)
 .comment       0x000004b6       0x12 common/libcommon.a(cmd_boot.o)
 .comment       0x000004c8       0x12 common/libcommon.a(cmd_bootm.o)
 .comment       0x000004da       0x12 common/libcommon.a(cmd_date.o)
 .comment       0x000004ec       0x12 common/libcommon.a(cmd_eeprom.o)
 .comment       0x000004fe       0x12 common/libcommon.a(cmd_ext2.o)
 .comment       0x00000510       0x12 common/libcommon.a(cmd_flash.o)
 .comment       0x00000522       0x12 common/libcommon.a(cmd_i2c.o)
 .comment       0x00000534       0x12 common/libcommon.a(cmd_jffs2.o)
 .comment       0x00000546       0x12 common/libcommon.a(cmd_mem.o)
 .comment       0x00000558       0x12 common/libcommon.a(cmd_nand.o)
 .comment       0x0000056a       0x12 common/libcommon.a(cmd_net.o)
 .comment       0x0000057c       0x12 common/libcommon.a(cmd_nvedit.o)
 .comment       0x0000058e       0x12 common/libcommon.a(cmd_pci.o)
 .comment       0x000005a0       0x12 common/libcommon.a(cmd_scsi.o)
 .comment       0x000005b2       0x12 common/libcommon.a(command.o)
 .comment       0x000005c4       0x12 common/libcommon.a(console.o)
 .comment       0x000005d6       0x12 common/libcommon.a(devices.o)
 .comment       0x000005e8       0x12 common/libcommon.a(dlmalloc.o)
 .comment       0x000005fa       0x12 common/libcommon.a(env_common.o)
 .comment       0x0000060c       0x12 common/libcommon.a(env_nand.o)
 .comment       0x0000061e       0x12 common/libcommon.a(exports.o)
 .comment       0x00000630       0x12 common/libcommon.a(flash.o)
 .comment       0x00000642       0x12 common/libcommon.a(lists.o)
 .comment       0x00000654       0x12 lib_generic/libgeneric.a(crc32.o)
 .comment       0x00000666       0x12 lib_generic/libgeneric.a(ctype.o)
 .comment       0x00000678       0x12 lib_generic/libgeneric.a(display_options.o)
 .comment       0x0000068a       0x12 lib_generic/libgeneric.a(string.o)
 .comment       0x0000069c       0x12 lib_generic/libgeneric.a(vsprintf.o)
 .comment       0x000006ae       0x12 lib_generic/libgeneric.a(zlib.o)
 .comment       0x000006c0       0x12 board/mv_feroceon/config_kw/libconfig_kw.a(mvCntmr.o)
 .comment       0x000006d2       0x12 board/mv_feroceon/config_kw/libconfig_kw.a(mv_dram.o)
 .comment       0x000006e4       0x12 board/mv_feroceon/config_kw/libconfig_kw.a(mv_serial.o)
 .comment       0x000006f6       0x12 board/mv_feroceon/config_kw/libconfig_kw.a(mv_rtc.o)
 .comment       0x00000708       0x12 board/mv_feroceon/config_kw/libconfig_kw.a(mv_nand.o)
 .comment       0x0000071a       0x12 board/mv_feroceon/config_kw/libconfig_kw.a(mv_egiga.o)
 .comment       0x0000072c       0x12 board/mv_feroceon/config_kw/libconfig_kw.a(mv_i2c.o)
 .comment       0x0000073e       0x12 board/mv_feroceon/config_kw/libconfig_kw.a(mvDramIf.o)
 .comment       0x00000750       0x12 board/mv_feroceon/config_kw/libconfig_kw.a(mvUart.o)
 .comment       0x00000762       0x12 board/mv_feroceon/config_kw/libconfig_kw.a(mvSpd.o)
 .comment       0x00000774       0x12 cpu/arm926ejs/libarm926ejs.a(cpu.o)
 .comment       0x00000786       0x12 lib_arm/libarm.a(armlinux.o)
 .comment       0x00000798       0x12 fs/cramfs/libcramfs.a(cramfs.o)
 .comment       0x000007aa       0x12 fs/cramfs/libcramfs.a(uncompress.o)
 .comment       0x000007bc       0x12 fs/jffs2/libjffs2.a(jffs2_1pass.o)
 .comment       0x000007ce       0x12 fs/jffs2/libjffs2.a(compr_rtime.o)
 .comment       0x000007e0       0x12 fs/jffs2/libjffs2.a(compr_rubin.o)
 .comment       0x000007f2       0x12 fs/jffs2/libjffs2.a(compr_zlib.o)
 .comment       0x00000804       0x12 fs/jffs2/libjffs2.a(mini_inflate.o)
 .comment       0x00000816       0x12 fs/ext2/libext2fs.a(ext2fs.o)
 .comment       0x00000828       0x12 fs/ext2/libext2fs.a(dev.o)
 .comment       0x0000083a       0x12 rtc/librtc.a(date.o)
 .comment       0x0000084c       0x12 drivers/libdrivers.a(ahci.o)
 .comment       0x0000085e       0x12 /opt/devel/proto/marvell/build-eabi/kernel-toolchain/bin/../lib/gcc/arm-none-linux-gnueabi/4.2.1/libgcc.a(bpabi.o)
 .comment       0x00000870       0x12 /opt/devel/proto/marvell/build-eabi/kernel-toolchain/bin/../lib/gcc/arm-none-linux-gnueabi/4.2.1/libgcc.a(_divdi3.o)
 .comment       0x00000882       0x12 /opt/devel/proto/marvell/build-eabi/kernel-toolchain/bin/../lib/gcc/arm-none-linux-gnueabi/4.2.1/libgcc.a(_udivdi3.o)
 .comment       0x00000894       0x12 /opt/devel/proto/marvell/build-eabi/kernel-toolchain/bin/../lib/gcc/arm-none-linux-gnueabi/4.2.1/libgcc.a(_clz.o)

.note.GNU-stack
                0x00000000        0x0
 .note.GNU-stack
                0x00000000        0x0 board/mv_feroceon/config_kw/libconfig_kw.a(mv_cmd.o)
 .note.GNU-stack
                0x00000000        0x0 board/mv_feroceon/config_kw/libconfig_kw.a(mv_main.o)
 .note.GNU-stack
                0x00000000        0x0 board/mv_feroceon/config_kw/libconfig_kw.a(mvCtrlEnvLib.o)
 .note.GNU-stack
                0x00000000        0x0 board/mv_feroceon/config_kw/libconfig_kw.a(mvAhbToMbus.o)
 .note.GNU-stack
                0x00000000        0x0 board/mv_feroceon/config_kw/libconfig_kw.a(mvCpuIf.o)
 .note.GNU-stack
                0x00000000        0x0 board/mv_feroceon/config_kw/libconfig_kw.a(mvSysXor.o)
 .note.GNU-stack
                0x00000000        0x0 board/mv_feroceon/config_kw/libconfig_kw.a(mvSysDram.o)
 .note.GNU-stack
                0x00000000        0x0 board/mv_feroceon/config_kw/libconfig_kw.a(mvSysGbe.o)
 .note.GNU-stack
                0x00000000        0x0 board/mv_feroceon/config_kw/libconfig_kw.a(mvSysTs.o)
 .note.GNU-stack
                0x00000000        0x0 board/mv_feroceon/config_kw/libconfig_kw.a(mvSysPex.o)
 .note.GNU-stack
                0x00000000        0x0 board/mv_feroceon/config_kw/libconfig_kw.a(mvSysUsb.o)
 .note.GNU-stack
                0x00000000        0x0 board/mv_feroceon/config_kw/libconfig_kw.a(mvCpu.o)
 .note.GNU-stack
                0x00000000        0x0 board/mv_feroceon/config_kw/libconfig_kw.a(mvBoardEnvLib.o)
 .note.GNU-stack
                0x00000000        0x0 board/mv_feroceon/config_kw/libconfig_kw.a(mvBoardEnvSpec.o)
 .note.GNU-stack
                0x00000000        0x0 board/mv_feroceon/config_kw/libconfig_kw.a(mv_flash.o)
 .note.GNU-stack
                0x00000000        0x0 board/mv_feroceon/config_kw/libconfig_kw.a(mv_pageTable.o)
 .note.GNU-stack
                0x00000000        0x0 board/mv_feroceon/config_kw/libconfig_kw.a(mv_mon_init.o)
 .note.GNU-stack
                0x00000000        0x0 board/mv_feroceon/config_kw/libconfig_kw.a(mv_pci.o)
 .note.GNU-stack
                0x00000000        0x0 board/mv_feroceon/config_kw/libconfig_kw.a(mv_ide.o)
 .note.GNU-stack
                0x00000000        0x0 board/mv_feroceon/config_kw/libconfig_kw.a(mv_protectionUnit.o)
 .note.GNU-stack
                0x00000000        0x0 board/mv_feroceon/config_kw/libconfig_kw.a(mv_ext2_boot.o)
 .note.GNU-stack
                0x00000000        0x0 board/mv_feroceon/config_kw/libconfig_kw.a(mvCommon.o)
 .note.GNU-stack
                0x00000000        0x0 board/mv_feroceon/config_kw/libconfig_kw.a(mvOs.o)
 .note.GNU-stack
                0x00000000        0x0 board/mv_feroceon/config_kw/libconfig_kw.a(mvFlashCom.o)
 .note.GNU-stack
                0x00000000        0x0 board/mv_feroceon/config_kw/libconfig_kw.a(mvSata.o)
 .note.GNU-stack
                0x00000000        0x0 board/mv_feroceon/config_kw/libconfig_kw.a(mvStorageDev.o)
 .note.GNU-stack
                0x00000000        0x0 board/mv_feroceon/config_kw/libconfig_kw.a(mvSFlash.o)
 .note.GNU-stack
                0x00000000        0x0 board/mv_feroceon/config_kw/libconfig_kw.a(mvEthPhy.o)
 .note.GNU-stack
                0x00000000        0x0 board/mv_feroceon/config_kw/libconfig_kw.a(mvRtc.o)
 .note.GNU-stack
                0x00000000        0x0 board/mv_feroceon/config_kw/libconfig_kw.a(mvTwsi.o)
 .note.GNU-stack
                0x00000000        0x0 board/mv_feroceon/config_kw/libconfig_kw.a(mvGpp.o)
 .note.GNU-stack
                0x00000000        0x0 board/mv_feroceon/config_kw/libconfig_kw.a(mvSpi.o)
 .note.GNU-stack
                0x00000000        0x0 board/mv_feroceon/config_kw/libconfig_kw.a(mvSpiCmnd.o)
 .note.GNU-stack
                0x00000000        0x0 board/mv_feroceon/config_kw/libconfig_kw.a(mvUsb.o)
 .note.GNU-stack
                0x00000000        0x0 board/mv_feroceon/config_kw/libconfig_kw.a(mvXor.o)
 .note.GNU-stack
                0x00000000        0x0 board/mv_feroceon/config_kw/libconfig_kw.a(mvEth.o)
 .note.GNU-stack
                0x00000000        0x0 board/mv_feroceon/config_kw/libconfig_kw.a(mvPciIf.o)
 .note.GNU-stack
                0x00000000        0x0 board/mv_feroceon/config_kw/libconfig_kw.a(mvPex.o)
 .note.GNU-stack
                0x00000000        0x0 board/mv_feroceon/config_kw/libconfig_kw.a(mvTsu.o)
 .note.GNU-stack
                0x00000000        0x0 board/mv_feroceon/config_kw/libconfig_kw.a(mvMD5.o)
 .note.GNU-stack
                0x00000000        0x0 board/mv_feroceon/config_kw/libconfig_kw.a(mvSwitch.o)
 .note.GNU-stack
                0x00000000        0x0 board/mv_feroceon/config_kw/libconfig_kw.a(mvCtrlEnvAddrDec.o)
 .note.GNU-stack
                0x00000000        0x0 board/mv_feroceon/config_kw/libconfig_kw.a(mvSysSata.o)
 .note.GNU-stack
                0x00000000        0x0 board/mv_feroceon/config_kw/libconfig_kw.a(mvPciUtils.o)
 .note.GNU-stack
                0x00000000        0x0 board/mv_feroceon/config_kw/libconfig_kw.a(mvOsSata.o)
 .note.GNU-stack
                0x00000000        0x0 cpu/arm926ejs/libarm926ejs.a(interrupts.o)
 .note.GNU-stack
                0x00000000        0x0 lib_arm/libarm.a(board.o)
 .note.GNU-stack
                0x00000000        0x0 lib_arm/libarm.a(cache.o)
 .note.GNU-stack
                0x00000000        0x0 net/libnet.a(net.o)
 .note.GNU-stack
                0x00000000        0x0 net/libnet.a(tftp.o)
 .note.GNU-stack
                0x00000000        0x0 net/libnet.a(bootp.o)
 .note.GNU-stack
                0x00000000        0x0 net/libnet.a(rarp.o)
 .note.GNU-stack
                0x00000000        0x0 net/libnet.a(eth.o)
 .note.GNU-stack
                0x00000000        0x0 net/libnet.a(rcvr.o)
 .note.GNU-stack
                0x00000000        0x0 disk/libdisk.a(part.o)
 .note.GNU-stack
                0x00000000        0x0 disk/libdisk.a(part_dos.o)
 .note.GNU-stack
                0x00000000        0x0 disk/libdisk.a(part_efi.o)
 .note.GNU-stack
                0x00000000        0x0 drivers/libdrivers.a(cfi_flash.o)
 .note.GNU-stack
                0x00000000        0x0 drivers/libdrivers.a(pci.o)
 .note.GNU-stack
                0x00000000        0x0 drivers/libdrivers.a(pci_auto.o)
 .note.GNU-stack
                0x00000000        0x0 drivers/nand/libnand.a(nand.o)
 .note.GNU-stack
                0x00000000        0x0 drivers/nand/libnand.a(nand_base.o)
 .note.GNU-stack
                0x00000000        0x0 drivers/nand/libnand.a(nand_ids.o)
 .note.GNU-stack
                0x00000000        0x0 drivers/nand/libnand.a(nand_ecc.o)
 .note.GNU-stack
                0x00000000        0x0 drivers/nand/libnand.a(nand_bbt.o)
 .note.GNU-stack
                0x00000000        0x0 drivers/nand/libnand.a(nand_util.o)
 .note.GNU-stack
                0x00000000        0x0 common/libcommon.a(main.o)
 .note.GNU-stack
                0x00000000        0x0 common/libcommon.a(cmd_boot.o)
 .note.GNU-stack
                0x00000000        0x0 common/libcommon.a(cmd_bootm.o)
 .note.GNU-stack
                0x00000000        0x0 common/libcommon.a(cmd_date.o)
 .note.GNU-stack
                0x00000000        0x0 common/libcommon.a(cmd_eeprom.o)
 .note.GNU-stack
                0x00000000        0x0 common/libcommon.a(cmd_ext2.o)
 .note.GNU-stack
                0x00000000        0x0 common/libcommon.a(cmd_flash.o)
 .note.GNU-stack
                0x00000000        0x0 common/libcommon.a(cmd_i2c.o)
 .note.GNU-stack
                0x00000000        0x0 common/libcommon.a(cmd_jffs2.o)
 .note.GNU-stack
                0x00000000        0x0 common/libcommon.a(cmd_mem.o)
 .note.GNU-stack
                0x00000000        0x0 common/libcommon.a(cmd_nand.o)
 .note.GNU-stack
                0x00000000        0x0 common/libcommon.a(cmd_net.o)
 .note.GNU-stack
                0x00000000        0x0 common/libcommon.a(cmd_nvedit.o)
 .note.GNU-stack
                0x00000000        0x0 common/libcommon.a(cmd_pci.o)
 .note.GNU-stack
                0x00000000        0x0 common/libcommon.a(cmd_scsi.o)
 .note.GNU-stack
                0x00000000        0x0 common/libcommon.a(command.o)
 .note.GNU-stack
                0x00000000        0x0 common/libcommon.a(console.o)
 .note.GNU-stack
                0x00000000        0x0 common/libcommon.a(devices.o)
 .note.GNU-stack
                0x00000000        0x0 common/libcommon.a(dlmalloc.o)
 .note.GNU-stack
                0x00000000        0x0 common/libcommon.a(env_common.o)
 .note.GNU-stack
                0x00000000        0x0 common/libcommon.a(env_nand.o)
 .note.GNU-stack
                0x00000000        0x0 common/libcommon.a(exports.o)
 .note.GNU-stack
                0x00000000        0x0 common/libcommon.a(flash.o)
 .note.GNU-stack
                0x00000000        0x0 common/libcommon.a(lists.o)
 .note.GNU-stack
                0x00000000        0x0 lib_generic/libgeneric.a(crc32.o)
 .note.GNU-stack
                0x00000000        0x0 lib_generic/libgeneric.a(ctype.o)
 .note.GNU-stack
                0x00000000        0x0 lib_generic/libgeneric.a(display_options.o)
 .note.GNU-stack
                0x00000000        0x0 lib_generic/libgeneric.a(string.o)
 .note.GNU-stack
                0x00000000        0x0 lib_generic/libgeneric.a(vsprintf.o)
 .note.GNU-stack
                0x00000000        0x0 lib_generic/libgeneric.a(zlib.o)
 .note.GNU-stack
                0x00000000        0x0 board/mv_feroceon/config_kw/libconfig_kw.a(mvCntmr.o)
 .note.GNU-stack
                0x00000000        0x0 board/mv_feroceon/config_kw/libconfig_kw.a(mv_dram.o)
 .note.GNU-stack
                0x00000000        0x0 board/mv_feroceon/config_kw/libconfig_kw.a(mv_serial.o)
 .note.GNU-stack
                0x00000000        0x0 board/mv_feroceon/config_kw/libconfig_kw.a(mv_rtc.o)
 .note.GNU-stack
                0x00000000        0x0 board/mv_feroceon/config_kw/libconfig_kw.a(mv_nand.o)
 .note.GNU-stack
                0x00000000        0x0 board/mv_feroceon/config_kw/libconfig_kw.a(mv_egiga.o)
 .note.GNU-stack
                0x00000000        0x0 board/mv_feroceon/config_kw/libconfig_kw.a(mv_i2c.o)
 .note.GNU-stack
                0x00000000        0x0 board/mv_feroceon/config_kw/libconfig_kw.a(mvDramIf.o)
 .note.GNU-stack
                0x00000000        0x0 board/mv_feroceon/config_kw/libconfig_kw.a(mvUart.o)
 .note.GNU-stack
                0x00000000        0x0 board/mv_feroceon/config_kw/libconfig_kw.a(mvSpd.o)
 .note.GNU-stack
                0x00000000        0x0 cpu/arm926ejs/libarm926ejs.a(cpu.o)
 .note.GNU-stack
                0x00000000        0x0 lib_arm/libarm.a(armlinux.o)
 .note.GNU-stack
                0x00000000        0x0 fs/cramfs/libcramfs.a(cramfs.o)
 .note.GNU-stack
                0x00000000        0x0 fs/cramfs/libcramfs.a(uncompress.o)
 .note.GNU-stack
                0x00000000        0x0 fs/jffs2/libjffs2.a(jffs2_1pass.o)
 .note.GNU-stack
                0x00000000        0x0 fs/jffs2/libjffs2.a(compr_rtime.o)
 .note.GNU-stack
                0x00000000        0x0 fs/jffs2/libjffs2.a(compr_rubin.o)
 .note.GNU-stack
                0x00000000        0x0 fs/jffs2/libjffs2.a(compr_zlib.o)
 .note.GNU-stack
                0x00000000        0x0 fs/jffs2/libjffs2.a(mini_inflate.o)
 .note.GNU-stack
                0x00000000        0x0 fs/ext2/libext2fs.a(ext2fs.o)
 .note.GNU-stack
                0x00000000        0x0 fs/ext2/libext2fs.a(dev.o)
 .note.GNU-stack
                0x00000000        0x0 rtc/librtc.a(date.o)
 .note.GNU-stack
                0x00000000        0x0 drivers/libdrivers.a(ahci.o)
 .note.GNU-stack
                0x00000000        0x0 /opt/devel/proto/marvell/build-eabi/kernel-toolchain/bin/../lib/gcc/arm-none-linux-gnueabi/4.2.1/libgcc.a(_udivsi3.o)
 .note.GNU-stack
                0x00000000        0x0 /opt/devel/proto/marvell/build-eabi/kernel-toolchain/bin/../lib/gcc/arm-none-linux-gnueabi/4.2.1/libgcc.a(_divsi3.o)
 .note.GNU-stack
                0x00000000        0x0 /opt/devel/proto/marvell/build-eabi/kernel-toolchain/bin/../lib/gcc/arm-none-linux-gnueabi/4.2.1/libgcc.a(_ashrdi3.o)
 .note.GNU-stack
                0x00000000        0x0 /opt/devel/proto/marvell/build-eabi/kernel-toolchain/bin/../lib/gcc/arm-none-linux-gnueabi/4.2.1/libgcc.a(_ashldi3.o)
 .note.GNU-stack
                0x00000000        0x0 /opt/devel/proto/marvell/build-eabi/kernel-toolchain/bin/../lib/gcc/arm-none-linux-gnueabi/4.2.1/libgcc.a(_aeabi_uldivmod.o)
 .note.GNU-stack
                0x00000000        0x0 /opt/devel/proto/marvell/build-eabi/kernel-toolchain/bin/../lib/gcc/arm-none-linux-gnueabi/4.2.1/libgcc.a(_dvmd_lnx.o)
 .note.GNU-stack
                0x00000000        0x0 /opt/devel/proto/marvell/build-eabi/kernel-toolchain/bin/../lib/gcc/arm-none-linux-gnueabi/4.2.1/libgcc.a(bpabi.o)
 .note.GNU-stack
                0x00000000        0x0 /opt/devel/proto/marvell/build-eabi/kernel-toolchain/bin/../lib/gcc/arm-none-linux-gnueabi/4.2.1/libgcc.a(_divdi3.o)
 .note.GNU-stack
                0x00000000        0x0 /opt/devel/proto/marvell/build-eabi/kernel-toolchain/bin/../lib/gcc/arm-none-linux-gnueabi/4.2.1/libgcc.a(_udivdi3.o)
 .note.GNU-stack
                0x00000000        0x0 /opt/devel/proto/marvell/build-eabi/kernel-toolchain/bin/../lib/gcc/arm-none-linux-gnueabi/4.2.1/libgcc.a(_clz.o)
